ARM GAS  /var/folders/2t/5_dq_mx53q95ng_my0p9r2x00000gp/T//ccE0nXnB.s 			page 1


   1              		.cpu cortex-m0
   2              		.fpu softvfp
   3              		.eabi_attribute 20, 1	@ Tag_ABI_FP_denormal
   4              		.eabi_attribute 21, 1	@ Tag_ABI_FP_exceptions
   5              		.eabi_attribute 23, 3	@ Tag_ABI_FP_number_model
   6              		.eabi_attribute 24, 1	@ Tag_ABI_align8_needed
   7              		.eabi_attribute 25, 1	@ Tag_ABI_align8_preserved
   8              		.eabi_attribute 26, 1	@ Tag_ABI_enum_size
   9              		.eabi_attribute 30, 4	@ Tag_ABI_optimization_goals
  10              		.eabi_attribute 34, 0	@ Tag_CPU_unaligned_access
  11              		.eabi_attribute 18, 4	@ Tag_ABI_PCS_wchar_t
  12              		.file	"stm32f0xx_gpio.c"
  13              	@ GNU C (GNU Tools for ARM Embedded Processors) version 4.8.3 20140228 (release) [ARM/embedded-4_8-
  14              	@	compiled by GNU C version 4.2.1 (Based on Apple Inc. build 5658) (LLVM build 2336.9.00), GMP vers
  15              	@ GGC heuristics: --param ggc-min-expand=100 --param ggc-min-heapsize=131072
  16              	@ options passed:  -I .
  17              	@ -I ../../STM32F0-Discovery_FW_V1.0.0/Libraries/CMSIS/ST/STM32F0xx/Include
  18              	@ -I ../../STM32F0-Discovery_FW_V1.0.0/Libraries/CMSIS/Include
  19              	@ -I ../../STM32F0-Discovery_FW_V1.0.0/Libraries/STM32F0xx_StdPeriph_Driver/inc
  20              	@ -I ../../STM32F0-Discovery_FW_V1.0.0/Utilities/STM32F0-Discovery -I ./inc
  21              	@ -imultilib armv6-m
  22              	@ -iprefix /Volumes/Data/torsten/dev/gcc-arm-none-eabi-4_8-2014q1/bin/../lib/gcc/arm-none-eabi/4.8.
  23              	@ -isysroot /Volumes/Data/torsten/dev/gcc-arm-none-eabi-4_8-2014q1/bin/../arm-none-eabi
  24              	@ -D__USES_INITFINI__ -D STM32F0XX -D USE_STDPERIPH_DRIVER
  25              	@ -D RUN_FROM_FLASH=1
  26              	@ ../../STM32F0-Discovery_FW_V1.0.0/Libraries/STM32F0xx_StdPeriph_Driver/src/stm32f0xx_gpio.c
  27              	@ -mcpu=cortex-m0 -mthumb
  28              	@ -auxbase-strip ../../STM32F0-Discovery_FW_V1.0.0/Libraries/STM32F0xx_StdPeriph_Driver/src/stm32f0
  29              	@ -g -gdwarf-2 -Os -Wall -Wstrict-prototypes -fomit-frame-pointer
  30              	@ -fverbose-asm
  31              	@ options enabled:  -faggressive-loop-optimizations -fauto-inc-dec
  32              	@ -fbranch-count-reg -fcaller-saves -fcombine-stack-adjustments -fcommon
  33              	@ -fcompare-elim -fcprop-registers -fcrossjumping -fcse-follow-jumps
  34              	@ -fdefer-pop -fdelete-null-pointer-checks -fdevirtualize -fdwarf2-cfi-asm
  35              	@ -fearly-inlining -feliminate-unused-debug-types -fexpensive-optimizations
  36              	@ -fforward-propagate -ffunction-cse -fgcse -fgcse-lm -fgnu-runtime
  37              	@ -fguess-branch-probability -fhoist-adjacent-loads -fident -fif-conversion
  38              	@ -fif-conversion2 -findirect-inlining -finline -finline-atomics
  39              	@ -finline-functions -finline-functions-called-once
  40              	@ -finline-small-functions -fipa-cp -fipa-profile -fipa-pure-const
  41              	@ -fipa-reference -fipa-sra -fira-hoist-pressure -fira-share-save-slots
  42              	@ -fira-share-spill-slots -fivopts -fkeep-static-consts
  43              	@ -fleading-underscore -fmath-errno -fmerge-constants -fmerge-debug-strings
  44              	@ -fomit-frame-pointer -foptimize-register-move -foptimize-sibling-calls
  45              	@ -fpartial-inlining -fpeephole -fpeephole2 -fprefetch-loop-arrays
  46              	@ -freg-struct-return -fregmove -freorder-blocks -freorder-functions
  47              	@ -frerun-cse-after-loop -fsched-critical-path-heuristic
  48              	@ -fsched-dep-count-heuristic -fsched-group-heuristic -fsched-interblock
  49              	@ -fsched-last-insn-heuristic -fsched-pressure -fsched-rank-heuristic
  50              	@ -fsched-spec -fsched-spec-insn-heuristic -fsched-stalled-insns-dep
  51              	@ -fschedule-insns2 -fsection-anchors -fshow-column -fshrink-wrap
  52              	@ -fsigned-zeros -fsplit-ivs-in-unroller -fsplit-wide-types
  53              	@ -fstrict-aliasing -fstrict-overflow -fstrict-volatile-bitfields
  54              	@ -fsync-libcalls -fthread-jumps -ftoplevel-reorder -ftrapping-math
  55              	@ -ftree-bit-ccp -ftree-builtin-call-dce -ftree-ccp -ftree-ch
  56              	@ -ftree-coalesce-vars -ftree-copy-prop -ftree-copyrename -ftree-cselim
  57              	@ -ftree-dce -ftree-dominator-opts -ftree-dse -ftree-forwprop -ftree-fre
ARM GAS  /var/folders/2t/5_dq_mx53q95ng_my0p9r2x00000gp/T//ccE0nXnB.s 			page 2


  58              	@ -ftree-loop-if-convert -ftree-loop-im -ftree-loop-ivcanon
  59              	@ -ftree-loop-optimize -ftree-parallelize-loops= -ftree-phiprop -ftree-pre
  60              	@ -ftree-pta -ftree-reassoc -ftree-scev-cprop -ftree-sink
  61              	@ -ftree-slp-vectorize -ftree-slsr -ftree-sra -ftree-switch-conversion
  62              	@ -ftree-tail-merge -ftree-ter -ftree-vect-loop-version -ftree-vrp
  63              	@ -funit-at-a-time -fvar-tracking -fvar-tracking-assignments -fverbose-asm
  64              	@ -fzero-initialized-in-bss -mlittle-endian -mpic-data-is-text-relative
  65              	@ -msched-prolog -mthumb -mvectorize-with-neon-quad
  66              	
  67              		.text
  68              	.Ltext0:
  69              		.cfi_sections	.debug_frame
  70              		.align	1
  71              		.global	GPIO_DeInit
  72              		.code	16
  73              		.thumb_func
  74              		.type	GPIO_DeInit, %function
  75              	GPIO_DeInit:
  76              	.LFB32:
  77              		.file 1 "../../STM32F0-Discovery_FW_V1.0.0/Libraries/STM32F0xx_StdPeriph_Driver/src/stm32f0xx_gpio
   1:../../STM32F0-Discovery_FW_V1.0.0/Libraries/STM32F0xx_StdPeriph_Driver/src/stm32f0xx_gpio.c **** /**
   2:../../STM32F0-Discovery_FW_V1.0.0/Libraries/STM32F0xx_StdPeriph_Driver/src/stm32f0xx_gpio.c ****   ******************************************************************************
   3:../../STM32F0-Discovery_FW_V1.0.0/Libraries/STM32F0xx_StdPeriph_Driver/src/stm32f0xx_gpio.c ****   * @file    stm32f0xx_gpio.c
   4:../../STM32F0-Discovery_FW_V1.0.0/Libraries/STM32F0xx_StdPeriph_Driver/src/stm32f0xx_gpio.c ****   * @author  MCD Application Team
   5:../../STM32F0-Discovery_FW_V1.0.0/Libraries/STM32F0xx_StdPeriph_Driver/src/stm32f0xx_gpio.c ****   * @version V1.0.0
   6:../../STM32F0-Discovery_FW_V1.0.0/Libraries/STM32F0xx_StdPeriph_Driver/src/stm32f0xx_gpio.c ****   * @date    23-March-2012
   7:../../STM32F0-Discovery_FW_V1.0.0/Libraries/STM32F0xx_StdPeriph_Driver/src/stm32f0xx_gpio.c ****   * @brief   This file provides firmware functions to manage the following 
   8:../../STM32F0-Discovery_FW_V1.0.0/Libraries/STM32F0xx_StdPeriph_Driver/src/stm32f0xx_gpio.c ****   *          functionalities of the GPIO peripheral:
   9:../../STM32F0-Discovery_FW_V1.0.0/Libraries/STM32F0xx_StdPeriph_Driver/src/stm32f0xx_gpio.c ****   *           + Initialization and Configuration functions
  10:../../STM32F0-Discovery_FW_V1.0.0/Libraries/STM32F0xx_StdPeriph_Driver/src/stm32f0xx_gpio.c ****   *           + GPIO Read and Write functions
  11:../../STM32F0-Discovery_FW_V1.0.0/Libraries/STM32F0xx_StdPeriph_Driver/src/stm32f0xx_gpio.c ****   *           + GPIO Alternate functions configuration functions
  12:../../STM32F0-Discovery_FW_V1.0.0/Libraries/STM32F0xx_StdPeriph_Driver/src/stm32f0xx_gpio.c ****   *
  13:../../STM32F0-Discovery_FW_V1.0.0/Libraries/STM32F0xx_StdPeriph_Driver/src/stm32f0xx_gpio.c ****   *  @verbatim
  14:../../STM32F0-Discovery_FW_V1.0.0/Libraries/STM32F0xx_StdPeriph_Driver/src/stm32f0xx_gpio.c ****   *
  15:../../STM32F0-Discovery_FW_V1.0.0/Libraries/STM32F0xx_StdPeriph_Driver/src/stm32f0xx_gpio.c ****   *
  16:../../STM32F0-Discovery_FW_V1.0.0/Libraries/STM32F0xx_StdPeriph_Driver/src/stm32f0xx_gpio.c ****     ===========================================================================
  17:../../STM32F0-Discovery_FW_V1.0.0/Libraries/STM32F0xx_StdPeriph_Driver/src/stm32f0xx_gpio.c ****                          ##### How to use this driver #####
  18:../../STM32F0-Discovery_FW_V1.0.0/Libraries/STM32F0xx_StdPeriph_Driver/src/stm32f0xx_gpio.c ****     ===========================================================================
  19:../../STM32F0-Discovery_FW_V1.0.0/Libraries/STM32F0xx_StdPeriph_Driver/src/stm32f0xx_gpio.c ****       [..]
  20:../../STM32F0-Discovery_FW_V1.0.0/Libraries/STM32F0xx_StdPeriph_Driver/src/stm32f0xx_gpio.c ****       (#) Enable the GPIO AHB clock using RCC_AHBPeriphClockCmd()
  21:../../STM32F0-Discovery_FW_V1.0.0/Libraries/STM32F0xx_StdPeriph_Driver/src/stm32f0xx_gpio.c ****       (#) Configure the GPIO pin(s) using GPIO_Init()
  22:../../STM32F0-Discovery_FW_V1.0.0/Libraries/STM32F0xx_StdPeriph_Driver/src/stm32f0xx_gpio.c ****           Four possible configuration are available for each pin:
  23:../../STM32F0-Discovery_FW_V1.0.0/Libraries/STM32F0xx_StdPeriph_Driver/src/stm32f0xx_gpio.c ****          (++) Input: Floating, Pull-up, Pull-down.
  24:../../STM32F0-Discovery_FW_V1.0.0/Libraries/STM32F0xx_StdPeriph_Driver/src/stm32f0xx_gpio.c ****          (++) Output: Push-Pull (Pull-up, Pull-down or no Pull)
  25:../../STM32F0-Discovery_FW_V1.0.0/Libraries/STM32F0xx_StdPeriph_Driver/src/stm32f0xx_gpio.c ****                       Open Drain (Pull-up, Pull-down or no Pull).
  26:../../STM32F0-Discovery_FW_V1.0.0/Libraries/STM32F0xx_StdPeriph_Driver/src/stm32f0xx_gpio.c ****               In output mode, the speed is configurable: Low, Medium, Fast or High.
  27:../../STM32F0-Discovery_FW_V1.0.0/Libraries/STM32F0xx_StdPeriph_Driver/src/stm32f0xx_gpio.c ****          (++) Alternate Function: Push-Pull (Pull-up, Pull-down or no Pull)
  28:../../STM32F0-Discovery_FW_V1.0.0/Libraries/STM32F0xx_StdPeriph_Driver/src/stm32f0xx_gpio.c ****                                   Open Drain (Pull-up, Pull-down or no Pull).
  29:../../STM32F0-Discovery_FW_V1.0.0/Libraries/STM32F0xx_StdPeriph_Driver/src/stm32f0xx_gpio.c ****          (++) Analog: required mode when a pin is to be used as ADC channel,
  30:../../STM32F0-Discovery_FW_V1.0.0/Libraries/STM32F0xx_StdPeriph_Driver/src/stm32f0xx_gpio.c ****               DAC output or comparator input.
  31:../../STM32F0-Discovery_FW_V1.0.0/Libraries/STM32F0xx_StdPeriph_Driver/src/stm32f0xx_gpio.c ****       (#) Peripherals alternate function:
  32:../../STM32F0-Discovery_FW_V1.0.0/Libraries/STM32F0xx_StdPeriph_Driver/src/stm32f0xx_gpio.c ****          (++) For ADC, DAC and comparators, configure the desired pin in analog 
  33:../../STM32F0-Discovery_FW_V1.0.0/Libraries/STM32F0xx_StdPeriph_Driver/src/stm32f0xx_gpio.c ****               mode using GPIO_InitStruct->GPIO_Mode = GPIO_Mode_AN
  34:../../STM32F0-Discovery_FW_V1.0.0/Libraries/STM32F0xx_StdPeriph_Driver/src/stm32f0xx_gpio.c ****          (++) For other peripherals (TIM, USART...):
  35:../../STM32F0-Discovery_FW_V1.0.0/Libraries/STM32F0xx_StdPeriph_Driver/src/stm32f0xx_gpio.c ****               (+++) Connect the pin to the desired peripherals' Alternate 
  36:../../STM32F0-Discovery_FW_V1.0.0/Libraries/STM32F0xx_StdPeriph_Driver/src/stm32f0xx_gpio.c ****                     Function (AF) using GPIO_PinAFConfig() function. For PortC, 
  37:../../STM32F0-Discovery_FW_V1.0.0/Libraries/STM32F0xx_StdPeriph_Driver/src/stm32f0xx_gpio.c ****                     PortD and PortF, no configuration is needed.
ARM GAS  /var/folders/2t/5_dq_mx53q95ng_my0p9r2x00000gp/T//ccE0nXnB.s 			page 3


  38:../../STM32F0-Discovery_FW_V1.0.0/Libraries/STM32F0xx_StdPeriph_Driver/src/stm32f0xx_gpio.c ****               (+++) Configure the desired pin in alternate function mode using
  39:../../STM32F0-Discovery_FW_V1.0.0/Libraries/STM32F0xx_StdPeriph_Driver/src/stm32f0xx_gpio.c ****                     GPIO_InitStruct->GPIO_Mode = GPIO_Mode_AF
  40:../../STM32F0-Discovery_FW_V1.0.0/Libraries/STM32F0xx_StdPeriph_Driver/src/stm32f0xx_gpio.c ****               (+++) Select the type, pull-up/pull-down and output speed via 
  41:../../STM32F0-Discovery_FW_V1.0.0/Libraries/STM32F0xx_StdPeriph_Driver/src/stm32f0xx_gpio.c ****                     GPIO_PuPd, GPIO_OType and GPIO_Speed members
  42:../../STM32F0-Discovery_FW_V1.0.0/Libraries/STM32F0xx_StdPeriph_Driver/src/stm32f0xx_gpio.c ****               (+++) Call GPIO_Init() function
  43:../../STM32F0-Discovery_FW_V1.0.0/Libraries/STM32F0xx_StdPeriph_Driver/src/stm32f0xx_gpio.c ****       (#) To get the level of a pin configured in input mode use GPIO_ReadInputDataBit()
  44:../../STM32F0-Discovery_FW_V1.0.0/Libraries/STM32F0xx_StdPeriph_Driver/src/stm32f0xx_gpio.c ****       (#) To set/reset the level of a pin configured in output mode use
  45:../../STM32F0-Discovery_FW_V1.0.0/Libraries/STM32F0xx_StdPeriph_Driver/src/stm32f0xx_gpio.c ****           GPIO_SetBits()/GPIO_ResetBits()
  46:../../STM32F0-Discovery_FW_V1.0.0/Libraries/STM32F0xx_StdPeriph_Driver/src/stm32f0xx_gpio.c ****       (#) During and just after reset, the alternate functions are not active and 
  47:../../STM32F0-Discovery_FW_V1.0.0/Libraries/STM32F0xx_StdPeriph_Driver/src/stm32f0xx_gpio.c ****           the GPIO pins are configured in input floating mode (except JTAG pins).
  48:../../STM32F0-Discovery_FW_V1.0.0/Libraries/STM32F0xx_StdPeriph_Driver/src/stm32f0xx_gpio.c ****       (#) The LSE oscillator pins OSC32_IN and OSC32_OUT can be used as 
  49:../../STM32F0-Discovery_FW_V1.0.0/Libraries/STM32F0xx_StdPeriph_Driver/src/stm32f0xx_gpio.c ****           general-purpose (PC14 and PC15, respectively) when the LSE oscillator 
  50:../../STM32F0-Discovery_FW_V1.0.0/Libraries/STM32F0xx_StdPeriph_Driver/src/stm32f0xx_gpio.c ****           is off. The LSE has priority over the GPIO function.
  51:../../STM32F0-Discovery_FW_V1.0.0/Libraries/STM32F0xx_StdPeriph_Driver/src/stm32f0xx_gpio.c ****       (#) The HSE oscillator pins OSC_IN/OSC_OUT can be used as general-purpose 
  52:../../STM32F0-Discovery_FW_V1.0.0/Libraries/STM32F0xx_StdPeriph_Driver/src/stm32f0xx_gpio.c ****           PD0 and PD1, respectively, when the HSE oscillator is off. The HSE has 
  53:../../STM32F0-Discovery_FW_V1.0.0/Libraries/STM32F0xx_StdPeriph_Driver/src/stm32f0xx_gpio.c ****           priority over the GPIO function.
  54:../../STM32F0-Discovery_FW_V1.0.0/Libraries/STM32F0xx_StdPeriph_Driver/src/stm32f0xx_gpio.c ****     @endverbatim
  55:../../STM32F0-Discovery_FW_V1.0.0/Libraries/STM32F0xx_StdPeriph_Driver/src/stm32f0xx_gpio.c ****   ******************************************************************************
  56:../../STM32F0-Discovery_FW_V1.0.0/Libraries/STM32F0xx_StdPeriph_Driver/src/stm32f0xx_gpio.c ****   * @attention
  57:../../STM32F0-Discovery_FW_V1.0.0/Libraries/STM32F0xx_StdPeriph_Driver/src/stm32f0xx_gpio.c ****   *
  58:../../STM32F0-Discovery_FW_V1.0.0/Libraries/STM32F0xx_StdPeriph_Driver/src/stm32f0xx_gpio.c ****   * <h2><center>&copy; COPYRIGHT 2012 STMicroelectronics</center></h2>
  59:../../STM32F0-Discovery_FW_V1.0.0/Libraries/STM32F0xx_StdPeriph_Driver/src/stm32f0xx_gpio.c ****   *
  60:../../STM32F0-Discovery_FW_V1.0.0/Libraries/STM32F0xx_StdPeriph_Driver/src/stm32f0xx_gpio.c ****   * Licensed under MCD-ST Liberty SW License Agreement V2, (the "License");
  61:../../STM32F0-Discovery_FW_V1.0.0/Libraries/STM32F0xx_StdPeriph_Driver/src/stm32f0xx_gpio.c ****   * You may not use this file except in compliance with the License.
  62:../../STM32F0-Discovery_FW_V1.0.0/Libraries/STM32F0xx_StdPeriph_Driver/src/stm32f0xx_gpio.c ****   * You may obtain a copy of the License at:
  63:../../STM32F0-Discovery_FW_V1.0.0/Libraries/STM32F0xx_StdPeriph_Driver/src/stm32f0xx_gpio.c ****   *
  64:../../STM32F0-Discovery_FW_V1.0.0/Libraries/STM32F0xx_StdPeriph_Driver/src/stm32f0xx_gpio.c ****   *        http://www.st.com/software_license_agreement_liberty_v2
  65:../../STM32F0-Discovery_FW_V1.0.0/Libraries/STM32F0xx_StdPeriph_Driver/src/stm32f0xx_gpio.c ****   *
  66:../../STM32F0-Discovery_FW_V1.0.0/Libraries/STM32F0xx_StdPeriph_Driver/src/stm32f0xx_gpio.c ****   * Unless required by applicable law or agreed to in writing, software 
  67:../../STM32F0-Discovery_FW_V1.0.0/Libraries/STM32F0xx_StdPeriph_Driver/src/stm32f0xx_gpio.c ****   * distributed under the License is distributed on an "AS IS" BASIS, 
  68:../../STM32F0-Discovery_FW_V1.0.0/Libraries/STM32F0xx_StdPeriph_Driver/src/stm32f0xx_gpio.c ****   * WITHOUT WARRANTIES OR CONDITIONS OF ANY KIND, either express or implied.
  69:../../STM32F0-Discovery_FW_V1.0.0/Libraries/STM32F0xx_StdPeriph_Driver/src/stm32f0xx_gpio.c ****   * See the License for the specific language governing permissions and
  70:../../STM32F0-Discovery_FW_V1.0.0/Libraries/STM32F0xx_StdPeriph_Driver/src/stm32f0xx_gpio.c ****   * limitations under the License.
  71:../../STM32F0-Discovery_FW_V1.0.0/Libraries/STM32F0xx_StdPeriph_Driver/src/stm32f0xx_gpio.c ****   *
  72:../../STM32F0-Discovery_FW_V1.0.0/Libraries/STM32F0xx_StdPeriph_Driver/src/stm32f0xx_gpio.c ****   ******************************************************************************
  73:../../STM32F0-Discovery_FW_V1.0.0/Libraries/STM32F0xx_StdPeriph_Driver/src/stm32f0xx_gpio.c ****   */
  74:../../STM32F0-Discovery_FW_V1.0.0/Libraries/STM32F0xx_StdPeriph_Driver/src/stm32f0xx_gpio.c **** 
  75:../../STM32F0-Discovery_FW_V1.0.0/Libraries/STM32F0xx_StdPeriph_Driver/src/stm32f0xx_gpio.c **** /* Includes ------------------------------------------------------------------*/
  76:../../STM32F0-Discovery_FW_V1.0.0/Libraries/STM32F0xx_StdPeriph_Driver/src/stm32f0xx_gpio.c **** #include "stm32f0xx_gpio.h"
  77:../../STM32F0-Discovery_FW_V1.0.0/Libraries/STM32F0xx_StdPeriph_Driver/src/stm32f0xx_gpio.c **** #include "stm32f0xx_rcc.h"
  78:../../STM32F0-Discovery_FW_V1.0.0/Libraries/STM32F0xx_StdPeriph_Driver/src/stm32f0xx_gpio.c **** 
  79:../../STM32F0-Discovery_FW_V1.0.0/Libraries/STM32F0xx_StdPeriph_Driver/src/stm32f0xx_gpio.c **** /** @addtogroup STM32F0xx_StdPeriph_Driver
  80:../../STM32F0-Discovery_FW_V1.0.0/Libraries/STM32F0xx_StdPeriph_Driver/src/stm32f0xx_gpio.c ****   * @{
  81:../../STM32F0-Discovery_FW_V1.0.0/Libraries/STM32F0xx_StdPeriph_Driver/src/stm32f0xx_gpio.c ****   */
  82:../../STM32F0-Discovery_FW_V1.0.0/Libraries/STM32F0xx_StdPeriph_Driver/src/stm32f0xx_gpio.c **** 
  83:../../STM32F0-Discovery_FW_V1.0.0/Libraries/STM32F0xx_StdPeriph_Driver/src/stm32f0xx_gpio.c **** /** @defgroup GPIO 
  84:../../STM32F0-Discovery_FW_V1.0.0/Libraries/STM32F0xx_StdPeriph_Driver/src/stm32f0xx_gpio.c ****   * @brief GPIO driver modules
  85:../../STM32F0-Discovery_FW_V1.0.0/Libraries/STM32F0xx_StdPeriph_Driver/src/stm32f0xx_gpio.c ****   * @{
  86:../../STM32F0-Discovery_FW_V1.0.0/Libraries/STM32F0xx_StdPeriph_Driver/src/stm32f0xx_gpio.c ****   */
  87:../../STM32F0-Discovery_FW_V1.0.0/Libraries/STM32F0xx_StdPeriph_Driver/src/stm32f0xx_gpio.c **** 
  88:../../STM32F0-Discovery_FW_V1.0.0/Libraries/STM32F0xx_StdPeriph_Driver/src/stm32f0xx_gpio.c **** /* Private typedef -----------------------------------------------------------*/
  89:../../STM32F0-Discovery_FW_V1.0.0/Libraries/STM32F0xx_StdPeriph_Driver/src/stm32f0xx_gpio.c **** /* Private define ------------------------------------------------------------*/
  90:../../STM32F0-Discovery_FW_V1.0.0/Libraries/STM32F0xx_StdPeriph_Driver/src/stm32f0xx_gpio.c **** /* Private macro -------------------------------------------------------------*/
  91:../../STM32F0-Discovery_FW_V1.0.0/Libraries/STM32F0xx_StdPeriph_Driver/src/stm32f0xx_gpio.c **** /* Private variables ---------------------------------------------------------*/
  92:../../STM32F0-Discovery_FW_V1.0.0/Libraries/STM32F0xx_StdPeriph_Driver/src/stm32f0xx_gpio.c **** /* Private function prototypes -----------------------------------------------*/
  93:../../STM32F0-Discovery_FW_V1.0.0/Libraries/STM32F0xx_StdPeriph_Driver/src/stm32f0xx_gpio.c **** /* Private functions ---------------------------------------------------------*/
  94:../../STM32F0-Discovery_FW_V1.0.0/Libraries/STM32F0xx_StdPeriph_Driver/src/stm32f0xx_gpio.c **** 
ARM GAS  /var/folders/2t/5_dq_mx53q95ng_my0p9r2x00000gp/T//ccE0nXnB.s 			page 4


  95:../../STM32F0-Discovery_FW_V1.0.0/Libraries/STM32F0xx_StdPeriph_Driver/src/stm32f0xx_gpio.c **** /** @defgroup GPIO_Private_Functions 
  96:../../STM32F0-Discovery_FW_V1.0.0/Libraries/STM32F0xx_StdPeriph_Driver/src/stm32f0xx_gpio.c ****   * @{
  97:../../STM32F0-Discovery_FW_V1.0.0/Libraries/STM32F0xx_StdPeriph_Driver/src/stm32f0xx_gpio.c ****   */
  98:../../STM32F0-Discovery_FW_V1.0.0/Libraries/STM32F0xx_StdPeriph_Driver/src/stm32f0xx_gpio.c **** 
  99:../../STM32F0-Discovery_FW_V1.0.0/Libraries/STM32F0xx_StdPeriph_Driver/src/stm32f0xx_gpio.c **** /** @defgroup GPIO_Group1 Initialization and Configuration
 100:../../STM32F0-Discovery_FW_V1.0.0/Libraries/STM32F0xx_StdPeriph_Driver/src/stm32f0xx_gpio.c ****  *  @brief   Initialization and Configuration
 101:../../STM32F0-Discovery_FW_V1.0.0/Libraries/STM32F0xx_StdPeriph_Driver/src/stm32f0xx_gpio.c ****  *
 102:../../STM32F0-Discovery_FW_V1.0.0/Libraries/STM32F0xx_StdPeriph_Driver/src/stm32f0xx_gpio.c **** @verbatim
 103:../../STM32F0-Discovery_FW_V1.0.0/Libraries/STM32F0xx_StdPeriph_Driver/src/stm32f0xx_gpio.c ****  ===============================================================================
 104:../../STM32F0-Discovery_FW_V1.0.0/Libraries/STM32F0xx_StdPeriph_Driver/src/stm32f0xx_gpio.c ****                     ##### Initialization and Configuration #####
 105:../../STM32F0-Discovery_FW_V1.0.0/Libraries/STM32F0xx_StdPeriph_Driver/src/stm32f0xx_gpio.c ****  ===============================================================================
 106:../../STM32F0-Discovery_FW_V1.0.0/Libraries/STM32F0xx_StdPeriph_Driver/src/stm32f0xx_gpio.c **** 
 107:../../STM32F0-Discovery_FW_V1.0.0/Libraries/STM32F0xx_StdPeriph_Driver/src/stm32f0xx_gpio.c **** @endverbatim
 108:../../STM32F0-Discovery_FW_V1.0.0/Libraries/STM32F0xx_StdPeriph_Driver/src/stm32f0xx_gpio.c ****   * @{
 109:../../STM32F0-Discovery_FW_V1.0.0/Libraries/STM32F0xx_StdPeriph_Driver/src/stm32f0xx_gpio.c ****   */
 110:../../STM32F0-Discovery_FW_V1.0.0/Libraries/STM32F0xx_StdPeriph_Driver/src/stm32f0xx_gpio.c **** 
 111:../../STM32F0-Discovery_FW_V1.0.0/Libraries/STM32F0xx_StdPeriph_Driver/src/stm32f0xx_gpio.c **** /**
 112:../../STM32F0-Discovery_FW_V1.0.0/Libraries/STM32F0xx_StdPeriph_Driver/src/stm32f0xx_gpio.c ****   * @brief  Deinitializes the GPIOx peripheral registers to their default reset 
 113:../../STM32F0-Discovery_FW_V1.0.0/Libraries/STM32F0xx_StdPeriph_Driver/src/stm32f0xx_gpio.c ****   *         values.
 114:../../STM32F0-Discovery_FW_V1.0.0/Libraries/STM32F0xx_StdPeriph_Driver/src/stm32f0xx_gpio.c ****   * @param  GPIOx: where x can be (A, B, C, D or F) to select the GPIO peripheral.
 115:../../STM32F0-Discovery_FW_V1.0.0/Libraries/STM32F0xx_StdPeriph_Driver/src/stm32f0xx_gpio.c ****   * @retval None
 116:../../STM32F0-Discovery_FW_V1.0.0/Libraries/STM32F0xx_StdPeriph_Driver/src/stm32f0xx_gpio.c ****   */
 117:../../STM32F0-Discovery_FW_V1.0.0/Libraries/STM32F0xx_StdPeriph_Driver/src/stm32f0xx_gpio.c **** void GPIO_DeInit(GPIO_TypeDef* GPIOx)
 118:../../STM32F0-Discovery_FW_V1.0.0/Libraries/STM32F0xx_StdPeriph_Driver/src/stm32f0xx_gpio.c **** {
  78              		.loc 1 118 0
  79              		.cfi_startproc
  80              	.LVL0:
  81 0000 08B5     		push	{r3, lr}	@
  82              	.LCFI0:
  83              		.cfi_def_cfa_offset 8
  84              		.cfi_offset 3, -8
  85              		.cfi_offset 14, -4
 119:../../STM32F0-Discovery_FW_V1.0.0/Libraries/STM32F0xx_StdPeriph_Driver/src/stm32f0xx_gpio.c ****   /* Check the parameters */
 120:../../STM32F0-Discovery_FW_V1.0.0/Libraries/STM32F0xx_StdPeriph_Driver/src/stm32f0xx_gpio.c ****   assert_param(IS_GPIO_ALL_PERIPH(GPIOx));
 121:../../STM32F0-Discovery_FW_V1.0.0/Libraries/STM32F0xx_StdPeriph_Driver/src/stm32f0xx_gpio.c **** 
 122:../../STM32F0-Discovery_FW_V1.0.0/Libraries/STM32F0xx_StdPeriph_Driver/src/stm32f0xx_gpio.c ****   if(GPIOx == GPIOA)
  86              		.loc 1 122 0
  87 0002 9023     		mov	r3, #144	@ tmp136,
  88 0004 DB05     		lsl	r3, r3, #23	@ tmp111, tmp136,
  89 0006 9842     		cmp	r0, r3	@ GPIOx, tmp111
  90 0008 07D1     		bne	.L2	@,
 123:../../STM32F0-Discovery_FW_V1.0.0/Libraries/STM32F0xx_StdPeriph_Driver/src/stm32f0xx_gpio.c ****   {
 124:../../STM32F0-Discovery_FW_V1.0.0/Libraries/STM32F0xx_StdPeriph_Driver/src/stm32f0xx_gpio.c ****     RCC_AHBPeriphResetCmd(RCC_AHBPeriph_GPIOA, ENABLE);
  91              		.loc 1 124 0
  92 000a 8020     		mov	r0, #128	@ tmp134,
  93              	.LVL1:
  94 000c 8002     		lsl	r0, r0, #10	@, tmp134,
  95 000e 0121     		mov	r1, #1	@,
  96 0010 FFF7FEFF 		bl	RCC_AHBPeriphResetCmd	@
  97              	.LVL2:
 125:../../STM32F0-Discovery_FW_V1.0.0/Libraries/STM32F0xx_StdPeriph_Driver/src/stm32f0xx_gpio.c ****     RCC_AHBPeriphResetCmd(RCC_AHBPeriph_GPIOA, DISABLE);
  98              		.loc 1 125 0
  99 0014 8020     		mov	r0, #128	@ tmp135,
 100 0016 8002     		lsl	r0, r0, #10	@, tmp135,
 101 0018 2AE0     		b	.L7	@
 102              	.LVL3:
 103              	.L2:
ARM GAS  /var/folders/2t/5_dq_mx53q95ng_my0p9r2x00000gp/T//ccE0nXnB.s 			page 5


 126:../../STM32F0-Discovery_FW_V1.0.0/Libraries/STM32F0xx_StdPeriph_Driver/src/stm32f0xx_gpio.c ****   }
 127:../../STM32F0-Discovery_FW_V1.0.0/Libraries/STM32F0xx_StdPeriph_Driver/src/stm32f0xx_gpio.c ****   else if(GPIOx == GPIOB)
 104              		.loc 1 127 0
 105 001a 174B     		ldr	r3, .L9	@ tmp114,
 106 001c 9842     		cmp	r0, r3	@ GPIOx, tmp114
 107 001e 07D1     		bne	.L4	@,
 128:../../STM32F0-Discovery_FW_V1.0.0/Libraries/STM32F0xx_StdPeriph_Driver/src/stm32f0xx_gpio.c ****   {
 129:../../STM32F0-Discovery_FW_V1.0.0/Libraries/STM32F0xx_StdPeriph_Driver/src/stm32f0xx_gpio.c ****     RCC_AHBPeriphResetCmd(RCC_AHBPeriph_GPIOB, ENABLE);
 108              		.loc 1 129 0
 109 0020 8020     		mov	r0, #128	@ tmp132,
 110              	.LVL4:
 111 0022 C002     		lsl	r0, r0, #11	@, tmp132,
 112 0024 0121     		mov	r1, #1	@,
 113 0026 FFF7FEFF 		bl	RCC_AHBPeriphResetCmd	@
 114              	.LVL5:
 130:../../STM32F0-Discovery_FW_V1.0.0/Libraries/STM32F0xx_StdPeriph_Driver/src/stm32f0xx_gpio.c ****     RCC_AHBPeriphResetCmd(RCC_AHBPeriph_GPIOB, DISABLE);
 115              		.loc 1 130 0
 116 002a 8020     		mov	r0, #128	@ tmp133,
 117 002c C002     		lsl	r0, r0, #11	@, tmp133,
 118 002e 1FE0     		b	.L7	@
 119              	.LVL6:
 120              	.L4:
 131:../../STM32F0-Discovery_FW_V1.0.0/Libraries/STM32F0xx_StdPeriph_Driver/src/stm32f0xx_gpio.c ****   }
 132:../../STM32F0-Discovery_FW_V1.0.0/Libraries/STM32F0xx_StdPeriph_Driver/src/stm32f0xx_gpio.c ****   else if(GPIOx == GPIOC)
 121              		.loc 1 132 0
 122 0030 124B     		ldr	r3, .L9+4	@ tmp117,
 123 0032 9842     		cmp	r0, r3	@ GPIOx, tmp117
 124 0034 07D1     		bne	.L5	@,
 133:../../STM32F0-Discovery_FW_V1.0.0/Libraries/STM32F0xx_StdPeriph_Driver/src/stm32f0xx_gpio.c ****   {
 134:../../STM32F0-Discovery_FW_V1.0.0/Libraries/STM32F0xx_StdPeriph_Driver/src/stm32f0xx_gpio.c ****     RCC_AHBPeriphResetCmd(RCC_AHBPeriph_GPIOC, ENABLE);
 125              		.loc 1 134 0
 126 0036 8020     		mov	r0, #128	@ tmp130,
 127              	.LVL7:
 128 0038 0003     		lsl	r0, r0, #12	@, tmp130,
 129 003a 0121     		mov	r1, #1	@,
 130 003c FFF7FEFF 		bl	RCC_AHBPeriphResetCmd	@
 131              	.LVL8:
 135:../../STM32F0-Discovery_FW_V1.0.0/Libraries/STM32F0xx_StdPeriph_Driver/src/stm32f0xx_gpio.c ****     RCC_AHBPeriphResetCmd(RCC_AHBPeriph_GPIOC, DISABLE);
 132              		.loc 1 135 0
 133 0040 8020     		mov	r0, #128	@ tmp131,
 134 0042 0003     		lsl	r0, r0, #12	@, tmp131,
 135 0044 14E0     		b	.L7	@
 136              	.LVL9:
 137              	.L5:
 136:../../STM32F0-Discovery_FW_V1.0.0/Libraries/STM32F0xx_StdPeriph_Driver/src/stm32f0xx_gpio.c ****   }
 137:../../STM32F0-Discovery_FW_V1.0.0/Libraries/STM32F0xx_StdPeriph_Driver/src/stm32f0xx_gpio.c ****   else if(GPIOx == GPIOD)
 138              		.loc 1 137 0
 139 0046 0E4B     		ldr	r3, .L9+8	@ tmp120,
 140 0048 9842     		cmp	r0, r3	@ GPIOx, tmp120
 141 004a 07D1     		bne	.L6	@,
 138:../../STM32F0-Discovery_FW_V1.0.0/Libraries/STM32F0xx_StdPeriph_Driver/src/stm32f0xx_gpio.c ****   {
 139:../../STM32F0-Discovery_FW_V1.0.0/Libraries/STM32F0xx_StdPeriph_Driver/src/stm32f0xx_gpio.c ****     RCC_AHBPeriphResetCmd(RCC_AHBPeriph_GPIOD, ENABLE);
 142              		.loc 1 139 0
 143 004c 8020     		mov	r0, #128	@ tmp128,
 144              	.LVL10:
 145 004e 4003     		lsl	r0, r0, #13	@, tmp128,
 146 0050 0121     		mov	r1, #1	@,
ARM GAS  /var/folders/2t/5_dq_mx53q95ng_my0p9r2x00000gp/T//ccE0nXnB.s 			page 6


 147 0052 FFF7FEFF 		bl	RCC_AHBPeriphResetCmd	@
 148              	.LVL11:
 140:../../STM32F0-Discovery_FW_V1.0.0/Libraries/STM32F0xx_StdPeriph_Driver/src/stm32f0xx_gpio.c ****     RCC_AHBPeriphResetCmd(RCC_AHBPeriph_GPIOD, DISABLE);
 149              		.loc 1 140 0
 150 0056 8020     		mov	r0, #128	@ tmp129,
 151 0058 4003     		lsl	r0, r0, #13	@, tmp129,
 152 005a 09E0     		b	.L7	@
 153              	.LVL12:
 154              	.L6:
 141:../../STM32F0-Discovery_FW_V1.0.0/Libraries/STM32F0xx_StdPeriph_Driver/src/stm32f0xx_gpio.c ****   }
 142:../../STM32F0-Discovery_FW_V1.0.0/Libraries/STM32F0xx_StdPeriph_Driver/src/stm32f0xx_gpio.c ****   else
 143:../../STM32F0-Discovery_FW_V1.0.0/Libraries/STM32F0xx_StdPeriph_Driver/src/stm32f0xx_gpio.c ****   {
 144:../../STM32F0-Discovery_FW_V1.0.0/Libraries/STM32F0xx_StdPeriph_Driver/src/stm32f0xx_gpio.c ****     if(GPIOx == GPIOF)
 155              		.loc 1 144 0
 156 005c 094B     		ldr	r3, .L9+12	@ tmp123,
 157 005e 9842     		cmp	r0, r3	@ GPIOx, tmp123
 158 0060 09D1     		bne	.L1	@,
 145:../../STM32F0-Discovery_FW_V1.0.0/Libraries/STM32F0xx_StdPeriph_Driver/src/stm32f0xx_gpio.c ****     {
 146:../../STM32F0-Discovery_FW_V1.0.0/Libraries/STM32F0xx_StdPeriph_Driver/src/stm32f0xx_gpio.c ****       RCC_AHBPeriphResetCmd(RCC_AHBPeriph_GPIOF, ENABLE);
 159              		.loc 1 146 0
 160 0062 8020     		mov	r0, #128	@ tmp126,
 161              	.LVL13:
 162 0064 C003     		lsl	r0, r0, #15	@, tmp126,
 163 0066 0121     		mov	r1, #1	@,
 164 0068 FFF7FEFF 		bl	RCC_AHBPeriphResetCmd	@
 165              	.LVL14:
 147:../../STM32F0-Discovery_FW_V1.0.0/Libraries/STM32F0xx_StdPeriph_Driver/src/stm32f0xx_gpio.c ****       RCC_AHBPeriphResetCmd(RCC_AHBPeriph_GPIOF, DISABLE);
 166              		.loc 1 147 0
 167 006c 8020     		mov	r0, #128	@ tmp127,
 168 006e C003     		lsl	r0, r0, #15	@, tmp127,
 169              	.L7:
 170 0070 0021     		mov	r1, #0	@,
 171 0072 FFF7FEFF 		bl	RCC_AHBPeriphResetCmd	@
 172              	.LVL15:
 173              	.L1:
 148:../../STM32F0-Discovery_FW_V1.0.0/Libraries/STM32F0xx_StdPeriph_Driver/src/stm32f0xx_gpio.c ****     }
 149:../../STM32F0-Discovery_FW_V1.0.0/Libraries/STM32F0xx_StdPeriph_Driver/src/stm32f0xx_gpio.c ****   }
 150:../../STM32F0-Discovery_FW_V1.0.0/Libraries/STM32F0xx_StdPeriph_Driver/src/stm32f0xx_gpio.c **** }
 174              		.loc 1 150 0
 175              		@ sp needed	@
 176 0076 08BD     		pop	{r3, pc}
 177              	.L10:
 178              		.align	2
 179              	.L9:
 180 0078 00040048 		.word	1207960576
 181 007c 00080048 		.word	1207961600
 182 0080 000C0048 		.word	1207962624
 183 0084 00140048 		.word	1207964672
 184              		.cfi_endproc
 185              	.LFE32:
 186              		.size	GPIO_DeInit, .-GPIO_DeInit
 187              		.align	1
 188              		.global	GPIO_Init
 189              		.code	16
 190              		.thumb_func
 191              		.type	GPIO_Init, %function
 192              	GPIO_Init:
ARM GAS  /var/folders/2t/5_dq_mx53q95ng_my0p9r2x00000gp/T//ccE0nXnB.s 			page 7


 193              	.LFB33:
 151:../../STM32F0-Discovery_FW_V1.0.0/Libraries/STM32F0xx_StdPeriph_Driver/src/stm32f0xx_gpio.c **** 
 152:../../STM32F0-Discovery_FW_V1.0.0/Libraries/STM32F0xx_StdPeriph_Driver/src/stm32f0xx_gpio.c **** /**
 153:../../STM32F0-Discovery_FW_V1.0.0/Libraries/STM32F0xx_StdPeriph_Driver/src/stm32f0xx_gpio.c ****   * @brief  Initializes the GPIOx peripheral according to the specified 
 154:../../STM32F0-Discovery_FW_V1.0.0/Libraries/STM32F0xx_StdPeriph_Driver/src/stm32f0xx_gpio.c ****   *         parameters in the GPIO_InitStruct.
 155:../../STM32F0-Discovery_FW_V1.0.0/Libraries/STM32F0xx_StdPeriph_Driver/src/stm32f0xx_gpio.c ****   * @param  GPIOx: where x can be (A, B, C, D or F) to select the GPIO peripheral.
 156:../../STM32F0-Discovery_FW_V1.0.0/Libraries/STM32F0xx_StdPeriph_Driver/src/stm32f0xx_gpio.c ****   * @param  GPIO_InitStruct: pointer to a GPIO_InitTypeDef structure that contains
 157:../../STM32F0-Discovery_FW_V1.0.0/Libraries/STM32F0xx_StdPeriph_Driver/src/stm32f0xx_gpio.c ****   *         the configuration information for the specified GPIO peripheral.
 158:../../STM32F0-Discovery_FW_V1.0.0/Libraries/STM32F0xx_StdPeriph_Driver/src/stm32f0xx_gpio.c ****   * @note   The configured pins can be: GPIO_Pin_0 -> GPIO_Pin_15 for GPIOA, GPIOB and GPIOC,
 159:../../STM32F0-Discovery_FW_V1.0.0/Libraries/STM32F0xx_StdPeriph_Driver/src/stm32f0xx_gpio.c ****   *         GPIO_Pin_0 -> GPIO_Pin_2 for GPIOD, GPIO_Pin_0 -> GPIO_Pin_3 for GPIOF.
 160:../../STM32F0-Discovery_FW_V1.0.0/Libraries/STM32F0xx_StdPeriph_Driver/src/stm32f0xx_gpio.c ****   * @retval None
 161:../../STM32F0-Discovery_FW_V1.0.0/Libraries/STM32F0xx_StdPeriph_Driver/src/stm32f0xx_gpio.c ****   */
 162:../../STM32F0-Discovery_FW_V1.0.0/Libraries/STM32F0xx_StdPeriph_Driver/src/stm32f0xx_gpio.c **** void GPIO_Init(GPIO_TypeDef* GPIOx, GPIO_InitTypeDef* GPIO_InitStruct)
 163:../../STM32F0-Discovery_FW_V1.0.0/Libraries/STM32F0xx_StdPeriph_Driver/src/stm32f0xx_gpio.c **** {
 194              		.loc 1 163 0
 195              		.cfi_startproc
 196              	.LVL16:
 197 0088 F7B5     		push	{r0, r1, r2, r4, r5, r6, r7, lr}	@
 198              	.LCFI1:
 199              		.cfi_def_cfa_offset 32
 200              		.cfi_offset 0, -32
 201              		.cfi_offset 1, -28
 202              		.cfi_offset 2, -24
 203              		.cfi_offset 4, -20
 204              		.cfi_offset 5, -16
 205              		.cfi_offset 6, -12
 206              		.cfi_offset 7, -8
 207              		.cfi_offset 14, -4
 164:../../STM32F0-Discovery_FW_V1.0.0/Libraries/STM32F0xx_StdPeriph_Driver/src/stm32f0xx_gpio.c ****   uint32_t pinpos = 0x00, pos = 0x00 , currentpin = 0x00;
 165:../../STM32F0-Discovery_FW_V1.0.0/Libraries/STM32F0xx_StdPeriph_Driver/src/stm32f0xx_gpio.c **** 
 166:../../STM32F0-Discovery_FW_V1.0.0/Libraries/STM32F0xx_StdPeriph_Driver/src/stm32f0xx_gpio.c ****   /* Check the parameters */
 167:../../STM32F0-Discovery_FW_V1.0.0/Libraries/STM32F0xx_StdPeriph_Driver/src/stm32f0xx_gpio.c ****   assert_param(IS_GPIO_ALL_PERIPH(GPIOx));
 168:../../STM32F0-Discovery_FW_V1.0.0/Libraries/STM32F0xx_StdPeriph_Driver/src/stm32f0xx_gpio.c ****   assert_param(IS_GPIO_PIN(GPIO_InitStruct->GPIO_Pin));
 169:../../STM32F0-Discovery_FW_V1.0.0/Libraries/STM32F0xx_StdPeriph_Driver/src/stm32f0xx_gpio.c ****   assert_param(IS_GPIO_MODE(GPIO_InitStruct->GPIO_Mode));
 170:../../STM32F0-Discovery_FW_V1.0.0/Libraries/STM32F0xx_StdPeriph_Driver/src/stm32f0xx_gpio.c ****   assert_param(IS_GPIO_PUPD(GPIO_InitStruct->GPIO_PuPd));
 171:../../STM32F0-Discovery_FW_V1.0.0/Libraries/STM32F0xx_StdPeriph_Driver/src/stm32f0xx_gpio.c **** 
 172:../../STM32F0-Discovery_FW_V1.0.0/Libraries/STM32F0xx_StdPeriph_Driver/src/stm32f0xx_gpio.c ****   /*-------------------------- Configure the port pins -----------------------*/
 173:../../STM32F0-Discovery_FW_V1.0.0/Libraries/STM32F0xx_StdPeriph_Driver/src/stm32f0xx_gpio.c ****   /*-- GPIO Mode Configuration --*/
 174:../../STM32F0-Discovery_FW_V1.0.0/Libraries/STM32F0xx_StdPeriph_Driver/src/stm32f0xx_gpio.c ****   for (pinpos = 0x00; pinpos < 0x10; pinpos++)
 175:../../STM32F0-Discovery_FW_V1.0.0/Libraries/STM32F0xx_StdPeriph_Driver/src/stm32f0xx_gpio.c ****   {
 176:../../STM32F0-Discovery_FW_V1.0.0/Libraries/STM32F0xx_StdPeriph_Driver/src/stm32f0xx_gpio.c ****     pos = ((uint32_t)0x01) << pinpos;
 177:../../STM32F0-Discovery_FW_V1.0.0/Libraries/STM32F0xx_StdPeriph_Driver/src/stm32f0xx_gpio.c **** 
 178:../../STM32F0-Discovery_FW_V1.0.0/Libraries/STM32F0xx_StdPeriph_Driver/src/stm32f0xx_gpio.c ****     /* Get the port pins position */
 179:../../STM32F0-Discovery_FW_V1.0.0/Libraries/STM32F0xx_StdPeriph_Driver/src/stm32f0xx_gpio.c ****     currentpin = (GPIO_InitStruct->GPIO_Pin) & pos;
 208              		.loc 1 179 0
 209 008a 0B68     		ldr	r3, [r1]	@, GPIO_InitStruct_10(D)->GPIO_Pin
 210 008c 0193     		str	r3, [sp, #4]	@, %sfp
 174:../../STM32F0-Discovery_FW_V1.0.0/Libraries/STM32F0xx_StdPeriph_Driver/src/stm32f0xx_gpio.c ****   for (pinpos = 0x00; pinpos < 0x10; pinpos++)
 211              		.loc 1 174 0
 212 008e 0023     		mov	r3, #0	@ pinpos,
 213              	.LVL17:
 214              	.L15:
 176:../../STM32F0-Discovery_FW_V1.0.0/Libraries/STM32F0xx_StdPeriph_Driver/src/stm32f0xx_gpio.c ****     pos = ((uint32_t)0x01) << pinpos;
 215              		.loc 1 176 0
 216 0090 0124     		mov	r4, #1	@ tmp157,
 217              		.loc 1 179 0
 218 0092 019A     		ldr	r2, [sp, #4]	@ currentpin, %sfp
ARM GAS  /var/folders/2t/5_dq_mx53q95ng_my0p9r2x00000gp/T//ccE0nXnB.s 			page 8


 176:../../STM32F0-Discovery_FW_V1.0.0/Libraries/STM32F0xx_StdPeriph_Driver/src/stm32f0xx_gpio.c ****     pos = ((uint32_t)0x01) << pinpos;
 219              		.loc 1 176 0
 220 0094 9C40     		lsl	r4, r4, r3	@ pos, tmp157, pinpos
 221              	.LVL18:
 222              		.loc 1 179 0
 223 0096 2240     		and	r2, r4	@ currentpin, pos
 224              	.LVL19:
 180:../../STM32F0-Discovery_FW_V1.0.0/Libraries/STM32F0xx_StdPeriph_Driver/src/stm32f0xx_gpio.c **** 
 181:../../STM32F0-Discovery_FW_V1.0.0/Libraries/STM32F0xx_StdPeriph_Driver/src/stm32f0xx_gpio.c ****     if (currentpin == pos)
 225              		.loc 1 181 0
 226 0098 A242     		cmp	r2, r4	@ currentpin, pos
 227 009a 2CD1     		bne	.L12	@,
 182:../../STM32F0-Discovery_FW_V1.0.0/Libraries/STM32F0xx_StdPeriph_Driver/src/stm32f0xx_gpio.c ****     {
 183:../../STM32F0-Discovery_FW_V1.0.0/Libraries/STM32F0xx_StdPeriph_Driver/src/stm32f0xx_gpio.c ****       if ((GPIO_InitStruct->GPIO_Mode == GPIO_Mode_OUT) || (GPIO_InitStruct->GPIO_Mode == GPIO_Mode
 228              		.loc 1 183 0
 229 009c 0D79     		ldrb	r5, [r1, #4]	@ D.4988,
 230 009e 6C1E     		sub	r4, r5, #1	@ tmp159, D.4988,
 231              	.LVL20:
 232 00a0 012C     		cmp	r4, #1	@ tmp159,
 233 00a2 14D8     		bhi	.L13	@,
 184:../../STM32F0-Discovery_FW_V1.0.0/Libraries/STM32F0xx_StdPeriph_Driver/src/stm32f0xx_gpio.c ****       {
 185:../../STM32F0-Discovery_FW_V1.0.0/Libraries/STM32F0xx_StdPeriph_Driver/src/stm32f0xx_gpio.c ****         /* Check Speed mode parameters */
 186:../../STM32F0-Discovery_FW_V1.0.0/Libraries/STM32F0xx_StdPeriph_Driver/src/stm32f0xx_gpio.c ****         assert_param(IS_GPIO_SPEED(GPIO_InitStruct->GPIO_Speed));
 187:../../STM32F0-Discovery_FW_V1.0.0/Libraries/STM32F0xx_StdPeriph_Driver/src/stm32f0xx_gpio.c **** 
 188:../../STM32F0-Discovery_FW_V1.0.0/Libraries/STM32F0xx_StdPeriph_Driver/src/stm32f0xx_gpio.c ****         /* Speed mode configuration */
 189:../../STM32F0-Discovery_FW_V1.0.0/Libraries/STM32F0xx_StdPeriph_Driver/src/stm32f0xx_gpio.c ****         GPIOx->OSPEEDR &= ~(GPIO_OSPEEDER_OSPEEDR0 << (pinpos * 2));
 234              		.loc 1 189 0
 235 00a4 8768     		ldr	r7, [r0, #8]	@ D.4987, GPIOx_15(D)->OSPEEDR
 236 00a6 5C00     		lsl	r4, r3, #1	@ D.4992, pinpos,
 237 00a8 0326     		mov	r6, #3	@,
 238 00aa A640     		lsl	r6, r6, r4	@,, D.4992
 239 00ac B743     		bic	r7, r6	@ D.4987,
 240 00ae 8760     		str	r7, [r0, #8]	@ D.4987, GPIOx_15(D)->OSPEEDR
 190:../../STM32F0-Discovery_FW_V1.0.0/Libraries/STM32F0xx_StdPeriph_Driver/src/stm32f0xx_gpio.c ****         GPIOx->OSPEEDR |= ((uint32_t)(GPIO_InitStruct->GPIO_Speed) << (pinpos * 2));
 241              		.loc 1 190 0
 242 00b0 4E79     		ldrb	r6, [r1, #5]	@,
 243 00b2 8768     		ldr	r7, [r0, #8]	@ D.4987, GPIOx_15(D)->OSPEEDR
 244 00b4 A640     		lsl	r6, r6, r4	@,, D.4992
 245 00b6 341C     		mov	r4, r6	@ D.4987,
 246 00b8 3C43     		orr	r4, r7	@ D.4987, D.4987
 247 00ba 8460     		str	r4, [r0, #8]	@ D.4987, GPIOx_15(D)->OSPEEDR
 191:../../STM32F0-Discovery_FW_V1.0.0/Libraries/STM32F0xx_StdPeriph_Driver/src/stm32f0xx_gpio.c **** 
 192:../../STM32F0-Discovery_FW_V1.0.0/Libraries/STM32F0xx_StdPeriph_Driver/src/stm32f0xx_gpio.c ****         /* Check Output mode parameters */
 193:../../STM32F0-Discovery_FW_V1.0.0/Libraries/STM32F0xx_StdPeriph_Driver/src/stm32f0xx_gpio.c ****         assert_param(IS_GPIO_OTYPE(GPIO_InitStruct->GPIO_OType));
 194:../../STM32F0-Discovery_FW_V1.0.0/Libraries/STM32F0xx_StdPeriph_Driver/src/stm32f0xx_gpio.c **** 
 195:../../STM32F0-Discovery_FW_V1.0.0/Libraries/STM32F0xx_StdPeriph_Driver/src/stm32f0xx_gpio.c ****         /* Output mode configuration */
 196:../../STM32F0-Discovery_FW_V1.0.0/Libraries/STM32F0xx_StdPeriph_Driver/src/stm32f0xx_gpio.c ****         GPIOx->OTYPER &= ~((GPIO_OTYPER_OT_0) << ((uint16_t)pinpos));
 248              		.loc 1 196 0
 249 00bc 8488     		ldrh	r4, [r0, #4]	@ tmp167,
 250 00be 9443     		bic	r4, r2	@ tmp167, currentpin
 251 00c0 8480     		strh	r4, [r0, #4]	@ D.4991, GPIOx_15(D)->OTYPER
 197:../../STM32F0-Discovery_FW_V1.0.0/Libraries/STM32F0xx_StdPeriph_Driver/src/stm32f0xx_gpio.c ****         GPIOx->OTYPER |= (uint16_t)(((uint16_t)GPIO_InitStruct->GPIO_OType) << ((uint16_t)pinpos));
 252              		.loc 1 197 0
 253 00c2 8A79     		ldrb	r2, [r1, #6]	@ D.4992,
 254              	.LVL21:
 255 00c4 8488     		ldrh	r4, [r0, #4]	@ tmp176,
 256 00c6 9A40     		lsl	r2, r2, r3	@ D.4992, D.4992, pinpos
ARM GAS  /var/folders/2t/5_dq_mx53q95ng_my0p9r2x00000gp/T//ccE0nXnB.s 			page 9


 257 00c8 2243     		orr	r2, r4	@ tmp180, tmp176
 258 00ca 92B2     		uxth	r2, r2	@ D.4991, tmp180
 259 00cc 8280     		strh	r2, [r0, #4]	@ D.4991, GPIOx_15(D)->OTYPER
 260              	.L13:
 261 00ce 5A00     		lsl	r2, r3, #1	@ D.4992, pinpos,
 198:../../STM32F0-Discovery_FW_V1.0.0/Libraries/STM32F0xx_StdPeriph_Driver/src/stm32f0xx_gpio.c ****       }
 199:../../STM32F0-Discovery_FW_V1.0.0/Libraries/STM32F0xx_StdPeriph_Driver/src/stm32f0xx_gpio.c **** 
 200:../../STM32F0-Discovery_FW_V1.0.0/Libraries/STM32F0xx_StdPeriph_Driver/src/stm32f0xx_gpio.c ****       GPIOx->MODER  &= ~(GPIO_MODER_MODER0 << (pinpos * 2));
 262              		.loc 1 200 0
 263 00d0 0324     		mov	r4, #3	@ tmp183,
 264 00d2 0768     		ldr	r7, [r0]	@ D.4987, GPIOx_15(D)->MODER
 265 00d4 9440     		lsl	r4, r4, r2	@ D.4987, tmp183, D.4992
 266 00d6 E443     		mvn	r4, r4	@ D.4987, D.4987
 267 00d8 2740     		and	r7, r4	@ D.4987, D.4987
 268 00da 0760     		str	r7, [r0]	@ D.4987, GPIOx_15(D)->MODER
 201:../../STM32F0-Discovery_FW_V1.0.0/Libraries/STM32F0xx_StdPeriph_Driver/src/stm32f0xx_gpio.c **** 
 202:../../STM32F0-Discovery_FW_V1.0.0/Libraries/STM32F0xx_StdPeriph_Driver/src/stm32f0xx_gpio.c ****       GPIOx->MODER |= (((uint32_t)GPIO_InitStruct->GPIO_Mode) << (pinpos * 2));
 269              		.loc 1 202 0
 270 00dc 0768     		ldr	r7, [r0]	@ D.4987, GPIOx_15(D)->MODER
 271 00de 9540     		lsl	r5, r5, r2	@ D.4987, D.4988, D.4992
 272 00e0 3D43     		orr	r5, r7	@ D.4987, D.4987
 273 00e2 0560     		str	r5, [r0]	@ D.4987, GPIOx_15(D)->MODER
 203:../../STM32F0-Discovery_FW_V1.0.0/Libraries/STM32F0xx_StdPeriph_Driver/src/stm32f0xx_gpio.c **** 
 204:../../STM32F0-Discovery_FW_V1.0.0/Libraries/STM32F0xx_StdPeriph_Driver/src/stm32f0xx_gpio.c ****       /* Pull-up Pull down resistor configuration */
 205:../../STM32F0-Discovery_FW_V1.0.0/Libraries/STM32F0xx_StdPeriph_Driver/src/stm32f0xx_gpio.c ****       GPIOx->PUPDR &= ~(GPIO_PUPDR_PUPDR0 << ((uint16_t)pinpos * 2));
 274              		.loc 1 205 0
 275 00e4 C568     		ldr	r5, [r0, #12]	@ D.4987, GPIOx_15(D)->PUPDR
 276 00e6 2C40     		and	r4, r5	@ D.4987, D.4987
 277 00e8 C460     		str	r4, [r0, #12]	@ D.4987, GPIOx_15(D)->PUPDR
 206:../../STM32F0-Discovery_FW_V1.0.0/Libraries/STM32F0xx_StdPeriph_Driver/src/stm32f0xx_gpio.c ****       GPIOx->PUPDR |= (((uint32_t)GPIO_InitStruct->GPIO_PuPd) << (pinpos * 2));
 278              		.loc 1 206 0
 279 00ea CD79     		ldrb	r5, [r1, #7]	@ D.4987,
 280 00ec C468     		ldr	r4, [r0, #12]	@ D.4987, GPIOx_15(D)->PUPDR
 281 00ee 9540     		lsl	r5, r5, r2	@ D.4987, D.4987, D.4992
 282 00f0 2A1C     		mov	r2, r5	@ D.4987, D.4987
 283 00f2 2243     		orr	r2, r4	@ D.4987, D.4987
 284 00f4 C260     		str	r2, [r0, #12]	@ D.4987, GPIOx_15(D)->PUPDR
 285              	.L12:
 174:../../STM32F0-Discovery_FW_V1.0.0/Libraries/STM32F0xx_StdPeriph_Driver/src/stm32f0xx_gpio.c ****   for (pinpos = 0x00; pinpos < 0x10; pinpos++)
 286              		.loc 1 174 0
 287 00f6 0133     		add	r3, r3, #1	@ pinpos,
 288              	.LVL22:
 289 00f8 102B     		cmp	r3, #16	@ pinpos,
 290 00fa C9D1     		bne	.L15	@,
 207:../../STM32F0-Discovery_FW_V1.0.0/Libraries/STM32F0xx_StdPeriph_Driver/src/stm32f0xx_gpio.c ****     }
 208:../../STM32F0-Discovery_FW_V1.0.0/Libraries/STM32F0xx_StdPeriph_Driver/src/stm32f0xx_gpio.c ****   }
 209:../../STM32F0-Discovery_FW_V1.0.0/Libraries/STM32F0xx_StdPeriph_Driver/src/stm32f0xx_gpio.c **** }
 291              		.loc 1 209 0
 292              		@ sp needed	@
 293 00fc F7BD     		pop	{r0, r1, r2, r4, r5, r6, r7, pc}
 294              		.cfi_endproc
 295              	.LFE33:
 296              		.size	GPIO_Init, .-GPIO_Init
 297              		.align	1
 298              		.global	GPIO_StructInit
 299              		.code	16
 300              		.thumb_func
ARM GAS  /var/folders/2t/5_dq_mx53q95ng_my0p9r2x00000gp/T//ccE0nXnB.s 			page 10


 301              		.type	GPIO_StructInit, %function
 302              	GPIO_StructInit:
 303              	.LFB34:
 210:../../STM32F0-Discovery_FW_V1.0.0/Libraries/STM32F0xx_StdPeriph_Driver/src/stm32f0xx_gpio.c **** 
 211:../../STM32F0-Discovery_FW_V1.0.0/Libraries/STM32F0xx_StdPeriph_Driver/src/stm32f0xx_gpio.c **** /**
 212:../../STM32F0-Discovery_FW_V1.0.0/Libraries/STM32F0xx_StdPeriph_Driver/src/stm32f0xx_gpio.c ****   * @brief  Fills each GPIO_InitStruct member with its default value.
 213:../../STM32F0-Discovery_FW_V1.0.0/Libraries/STM32F0xx_StdPeriph_Driver/src/stm32f0xx_gpio.c ****   * @param  GPIO_InitStruct: pointer to a GPIO_InitTypeDef structure which will 
 214:../../STM32F0-Discovery_FW_V1.0.0/Libraries/STM32F0xx_StdPeriph_Driver/src/stm32f0xx_gpio.c ****   *         be initialized.
 215:../../STM32F0-Discovery_FW_V1.0.0/Libraries/STM32F0xx_StdPeriph_Driver/src/stm32f0xx_gpio.c ****   * @retval None
 216:../../STM32F0-Discovery_FW_V1.0.0/Libraries/STM32F0xx_StdPeriph_Driver/src/stm32f0xx_gpio.c ****   */
 217:../../STM32F0-Discovery_FW_V1.0.0/Libraries/STM32F0xx_StdPeriph_Driver/src/stm32f0xx_gpio.c **** void GPIO_StructInit(GPIO_InitTypeDef* GPIO_InitStruct)
 218:../../STM32F0-Discovery_FW_V1.0.0/Libraries/STM32F0xx_StdPeriph_Driver/src/stm32f0xx_gpio.c **** {
 304              		.loc 1 218 0
 305              		.cfi_startproc
 306              	.LVL23:
 219:../../STM32F0-Discovery_FW_V1.0.0/Libraries/STM32F0xx_StdPeriph_Driver/src/stm32f0xx_gpio.c ****   /* Reset GPIO init structure parameters values */
 220:../../STM32F0-Discovery_FW_V1.0.0/Libraries/STM32F0xx_StdPeriph_Driver/src/stm32f0xx_gpio.c ****   GPIO_InitStruct->GPIO_Pin  = GPIO_Pin_All;
 307              		.loc 1 220 0
 308 00fe 044B     		ldr	r3, .L17	@ tmp111,
 221:../../STM32F0-Discovery_FW_V1.0.0/Libraries/STM32F0xx_StdPeriph_Driver/src/stm32f0xx_gpio.c ****   GPIO_InitStruct->GPIO_Mode = GPIO_Mode_IN;
 222:../../STM32F0-Discovery_FW_V1.0.0/Libraries/STM32F0xx_StdPeriph_Driver/src/stm32f0xx_gpio.c ****   GPIO_InitStruct->GPIO_Speed = GPIO_Speed_Level_2;
 309              		.loc 1 222 0
 310 0100 0222     		mov	r2, #2	@ tmp114,
 220:../../STM32F0-Discovery_FW_V1.0.0/Libraries/STM32F0xx_StdPeriph_Driver/src/stm32f0xx_gpio.c ****   GPIO_InitStruct->GPIO_Pin  = GPIO_Pin_All;
 311              		.loc 1 220 0
 312 0102 0360     		str	r3, [r0]	@ tmp111, GPIO_InitStruct_2(D)->GPIO_Pin
 221:../../STM32F0-Discovery_FW_V1.0.0/Libraries/STM32F0xx_StdPeriph_Driver/src/stm32f0xx_gpio.c ****   GPIO_InitStruct->GPIO_Mode = GPIO_Mode_IN;
 313              		.loc 1 221 0
 314 0104 0023     		mov	r3, #0	@ tmp112,
 315 0106 0371     		strb	r3, [r0, #4]	@ tmp112, GPIO_InitStruct_2(D)->GPIO_Mode
 316              		.loc 1 222 0
 317 0108 4271     		strb	r2, [r0, #5]	@ tmp114, GPIO_InitStruct_2(D)->GPIO_Speed
 223:../../STM32F0-Discovery_FW_V1.0.0/Libraries/STM32F0xx_StdPeriph_Driver/src/stm32f0xx_gpio.c ****   GPIO_InitStruct->GPIO_OType = GPIO_OType_PP;
 318              		.loc 1 223 0
 319 010a 8371     		strb	r3, [r0, #6]	@ tmp112, GPIO_InitStruct_2(D)->GPIO_OType
 224:../../STM32F0-Discovery_FW_V1.0.0/Libraries/STM32F0xx_StdPeriph_Driver/src/stm32f0xx_gpio.c ****   GPIO_InitStruct->GPIO_PuPd = GPIO_PuPd_NOPULL;
 320              		.loc 1 224 0
 321 010c C371     		strb	r3, [r0, #7]	@ tmp112, GPIO_InitStruct_2(D)->GPIO_PuPd
 225:../../STM32F0-Discovery_FW_V1.0.0/Libraries/STM32F0xx_StdPeriph_Driver/src/stm32f0xx_gpio.c **** }
 322              		.loc 1 225 0
 323              		@ sp needed	@
 324 010e 7047     		bx	lr
 325              	.L18:
 326              		.align	2
 327              	.L17:
 328 0110 FFFF0000 		.word	65535
 329              		.cfi_endproc
 330              	.LFE34:
 331              		.size	GPIO_StructInit, .-GPIO_StructInit
 332              		.align	1
 333              		.global	GPIO_PinLockConfig
 334              		.code	16
 335              		.thumb_func
 336              		.type	GPIO_PinLockConfig, %function
 337              	GPIO_PinLockConfig:
 338              	.LFB35:
 226:../../STM32F0-Discovery_FW_V1.0.0/Libraries/STM32F0xx_StdPeriph_Driver/src/stm32f0xx_gpio.c **** 
ARM GAS  /var/folders/2t/5_dq_mx53q95ng_my0p9r2x00000gp/T//ccE0nXnB.s 			page 11


 227:../../STM32F0-Discovery_FW_V1.0.0/Libraries/STM32F0xx_StdPeriph_Driver/src/stm32f0xx_gpio.c **** /**
 228:../../STM32F0-Discovery_FW_V1.0.0/Libraries/STM32F0xx_StdPeriph_Driver/src/stm32f0xx_gpio.c ****   * @brief  Locks GPIO Pins configuration registers.
 229:../../STM32F0-Discovery_FW_V1.0.0/Libraries/STM32F0xx_StdPeriph_Driver/src/stm32f0xx_gpio.c ****   *         The locked registers are GPIOx_MODER, GPIOx_OTYPER, GPIOx_OSPEEDR,
 230:../../STM32F0-Discovery_FW_V1.0.0/Libraries/STM32F0xx_StdPeriph_Driver/src/stm32f0xx_gpio.c ****   *         GPIOx_PUPDR, GPIOx_AFRL and GPIOx_AFRH.
 231:../../STM32F0-Discovery_FW_V1.0.0/Libraries/STM32F0xx_StdPeriph_Driver/src/stm32f0xx_gpio.c ****   * @note   The configuration of the locked GPIO pins can no longer be modified
 232:../../STM32F0-Discovery_FW_V1.0.0/Libraries/STM32F0xx_StdPeriph_Driver/src/stm32f0xx_gpio.c ****   *         until the next reset.
 233:../../STM32F0-Discovery_FW_V1.0.0/Libraries/STM32F0xx_StdPeriph_Driver/src/stm32f0xx_gpio.c ****   * @param  GPIOx: where x can be (A or B) to select the GPIO peripheral.
 234:../../STM32F0-Discovery_FW_V1.0.0/Libraries/STM32F0xx_StdPeriph_Driver/src/stm32f0xx_gpio.c ****   * @param  GPIO_Pin: specifies the port bit to be written.
 235:../../STM32F0-Discovery_FW_V1.0.0/Libraries/STM32F0xx_StdPeriph_Driver/src/stm32f0xx_gpio.c ****   *   This parameter can be any combination of GPIO_Pin_x where x can be (0..15).
 236:../../STM32F0-Discovery_FW_V1.0.0/Libraries/STM32F0xx_StdPeriph_Driver/src/stm32f0xx_gpio.c ****   * @retval None
 237:../../STM32F0-Discovery_FW_V1.0.0/Libraries/STM32F0xx_StdPeriph_Driver/src/stm32f0xx_gpio.c ****   */
 238:../../STM32F0-Discovery_FW_V1.0.0/Libraries/STM32F0xx_StdPeriph_Driver/src/stm32f0xx_gpio.c **** void GPIO_PinLockConfig(GPIO_TypeDef* GPIOx, uint16_t GPIO_Pin)
 239:../../STM32F0-Discovery_FW_V1.0.0/Libraries/STM32F0xx_StdPeriph_Driver/src/stm32f0xx_gpio.c **** {
 339              		.loc 1 239 0
 340              		.cfi_startproc
 341              	.LVL24:
 240:../../STM32F0-Discovery_FW_V1.0.0/Libraries/STM32F0xx_StdPeriph_Driver/src/stm32f0xx_gpio.c ****   __IO uint32_t tmp = 0x00010000;
 342              		.loc 1 240 0
 343 0114 8023     		mov	r3, #128	@ tmp120,
 239:../../STM32F0-Discovery_FW_V1.0.0/Libraries/STM32F0xx_StdPeriph_Driver/src/stm32f0xx_gpio.c **** {
 344              		.loc 1 239 0
 345 0116 82B0     		sub	sp, sp, #8	@,,
 346              	.LCFI2:
 347              		.cfi_def_cfa_offset 8
 348              		.loc 1 240 0
 349 0118 5B02     		lsl	r3, r3, #9	@ tmp119, tmp120,
 350 011a 0193     		str	r3, [sp, #4]	@ tmp119, tmp
 241:../../STM32F0-Discovery_FW_V1.0.0/Libraries/STM32F0xx_StdPeriph_Driver/src/stm32f0xx_gpio.c **** 
 242:../../STM32F0-Discovery_FW_V1.0.0/Libraries/STM32F0xx_StdPeriph_Driver/src/stm32f0xx_gpio.c ****   /* Check the parameters */
 243:../../STM32F0-Discovery_FW_V1.0.0/Libraries/STM32F0xx_StdPeriph_Driver/src/stm32f0xx_gpio.c ****   assert_param(IS_GPIO_LIST_PERIPH(GPIOx));
 244:../../STM32F0-Discovery_FW_V1.0.0/Libraries/STM32F0xx_StdPeriph_Driver/src/stm32f0xx_gpio.c ****   assert_param(IS_GPIO_PIN(GPIO_Pin));
 245:../../STM32F0-Discovery_FW_V1.0.0/Libraries/STM32F0xx_StdPeriph_Driver/src/stm32f0xx_gpio.c **** 
 246:../../STM32F0-Discovery_FW_V1.0.0/Libraries/STM32F0xx_StdPeriph_Driver/src/stm32f0xx_gpio.c ****   tmp |= GPIO_Pin;
 351              		.loc 1 246 0
 352 011c 019B     		ldr	r3, [sp, #4]	@ tmp.1, tmp
 353 011e 0B43     		orr	r3, r1	@ tmp.2, GPIO_Pin
 354 0120 0193     		str	r3, [sp, #4]	@ tmp.2, tmp
 247:../../STM32F0-Discovery_FW_V1.0.0/Libraries/STM32F0xx_StdPeriph_Driver/src/stm32f0xx_gpio.c ****   /* Set LCKK bit */
 248:../../STM32F0-Discovery_FW_V1.0.0/Libraries/STM32F0xx_StdPeriph_Driver/src/stm32f0xx_gpio.c ****   GPIOx->LCKR = tmp;
 355              		.loc 1 248 0
 356 0122 019B     		ldr	r3, [sp, #4]	@ tmp.3, tmp
 357 0124 C361     		str	r3, [r0, #28]	@ tmp.3, GPIOx_9(D)->LCKR
 249:../../STM32F0-Discovery_FW_V1.0.0/Libraries/STM32F0xx_StdPeriph_Driver/src/stm32f0xx_gpio.c ****   /* Reset LCKK bit */
 250:../../STM32F0-Discovery_FW_V1.0.0/Libraries/STM32F0xx_StdPeriph_Driver/src/stm32f0xx_gpio.c ****   GPIOx->LCKR =  GPIO_Pin;
 358              		.loc 1 250 0
 359 0126 C161     		str	r1, [r0, #28]	@ GPIO_Pin, GPIOx_9(D)->LCKR
 251:../../STM32F0-Discovery_FW_V1.0.0/Libraries/STM32F0xx_StdPeriph_Driver/src/stm32f0xx_gpio.c ****   /* Set LCKK bit */
 252:../../STM32F0-Discovery_FW_V1.0.0/Libraries/STM32F0xx_StdPeriph_Driver/src/stm32f0xx_gpio.c ****   GPIOx->LCKR = tmp;
 360              		.loc 1 252 0
 361 0128 019B     		ldr	r3, [sp, #4]	@ tmp.4, tmp
 362 012a C361     		str	r3, [r0, #28]	@ tmp.4, GPIOx_9(D)->LCKR
 253:../../STM32F0-Discovery_FW_V1.0.0/Libraries/STM32F0xx_StdPeriph_Driver/src/stm32f0xx_gpio.c ****   /* Read LCKK bit */
 254:../../STM32F0-Discovery_FW_V1.0.0/Libraries/STM32F0xx_StdPeriph_Driver/src/stm32f0xx_gpio.c ****   tmp = GPIOx->LCKR;
 363              		.loc 1 254 0
 364 012c C369     		ldr	r3, [r0, #28]	@ tmp.5, GPIOx_9(D)->LCKR
 365 012e 0193     		str	r3, [sp, #4]	@ tmp.5, tmp
 255:../../STM32F0-Discovery_FW_V1.0.0/Libraries/STM32F0xx_StdPeriph_Driver/src/stm32f0xx_gpio.c ****   /* Read LCKK bit */
ARM GAS  /var/folders/2t/5_dq_mx53q95ng_my0p9r2x00000gp/T//ccE0nXnB.s 			page 12


 256:../../STM32F0-Discovery_FW_V1.0.0/Libraries/STM32F0xx_StdPeriph_Driver/src/stm32f0xx_gpio.c ****   tmp = GPIOx->LCKR;
 366              		.loc 1 256 0
 367 0130 C369     		ldr	r3, [r0, #28]	@ tmp.6, GPIOx_9(D)->LCKR
 368 0132 0193     		str	r3, [sp, #4]	@ tmp.6, tmp
 257:../../STM32F0-Discovery_FW_V1.0.0/Libraries/STM32F0xx_StdPeriph_Driver/src/stm32f0xx_gpio.c **** }
 369              		.loc 1 257 0
 370 0134 02B0     		add	sp, sp, #8	@,,
 371              		@ sp needed	@
 372 0136 7047     		bx	lr
 373              		.cfi_endproc
 374              	.LFE35:
 375              		.size	GPIO_PinLockConfig, .-GPIO_PinLockConfig
 376              		.align	1
 377              		.global	GPIO_ReadInputDataBit
 378              		.code	16
 379              		.thumb_func
 380              		.type	GPIO_ReadInputDataBit, %function
 381              	GPIO_ReadInputDataBit:
 382              	.LFB36:
 258:../../STM32F0-Discovery_FW_V1.0.0/Libraries/STM32F0xx_StdPeriph_Driver/src/stm32f0xx_gpio.c **** 
 259:../../STM32F0-Discovery_FW_V1.0.0/Libraries/STM32F0xx_StdPeriph_Driver/src/stm32f0xx_gpio.c **** /**
 260:../../STM32F0-Discovery_FW_V1.0.0/Libraries/STM32F0xx_StdPeriph_Driver/src/stm32f0xx_gpio.c ****   * @}
 261:../../STM32F0-Discovery_FW_V1.0.0/Libraries/STM32F0xx_StdPeriph_Driver/src/stm32f0xx_gpio.c ****   */
 262:../../STM32F0-Discovery_FW_V1.0.0/Libraries/STM32F0xx_StdPeriph_Driver/src/stm32f0xx_gpio.c **** 
 263:../../STM32F0-Discovery_FW_V1.0.0/Libraries/STM32F0xx_StdPeriph_Driver/src/stm32f0xx_gpio.c **** /** @defgroup GPIO_Group2 GPIO Read and Write
 264:../../STM32F0-Discovery_FW_V1.0.0/Libraries/STM32F0xx_StdPeriph_Driver/src/stm32f0xx_gpio.c ****  *  @brief   GPIO Read and Write
 265:../../STM32F0-Discovery_FW_V1.0.0/Libraries/STM32F0xx_StdPeriph_Driver/src/stm32f0xx_gpio.c ****  *
 266:../../STM32F0-Discovery_FW_V1.0.0/Libraries/STM32F0xx_StdPeriph_Driver/src/stm32f0xx_gpio.c **** @verbatim   
 267:../../STM32F0-Discovery_FW_V1.0.0/Libraries/STM32F0xx_StdPeriph_Driver/src/stm32f0xx_gpio.c ****  ===============================================================================
 268:../../STM32F0-Discovery_FW_V1.0.0/Libraries/STM32F0xx_StdPeriph_Driver/src/stm32f0xx_gpio.c ****                       ##### GPIO Read and Write #####
 269:../../STM32F0-Discovery_FW_V1.0.0/Libraries/STM32F0xx_StdPeriph_Driver/src/stm32f0xx_gpio.c ****  ===============================================================================  
 270:../../STM32F0-Discovery_FW_V1.0.0/Libraries/STM32F0xx_StdPeriph_Driver/src/stm32f0xx_gpio.c **** 
 271:../../STM32F0-Discovery_FW_V1.0.0/Libraries/STM32F0xx_StdPeriph_Driver/src/stm32f0xx_gpio.c **** @endverbatim
 272:../../STM32F0-Discovery_FW_V1.0.0/Libraries/STM32F0xx_StdPeriph_Driver/src/stm32f0xx_gpio.c ****   * @{
 273:../../STM32F0-Discovery_FW_V1.0.0/Libraries/STM32F0xx_StdPeriph_Driver/src/stm32f0xx_gpio.c ****   */
 274:../../STM32F0-Discovery_FW_V1.0.0/Libraries/STM32F0xx_StdPeriph_Driver/src/stm32f0xx_gpio.c **** 
 275:../../STM32F0-Discovery_FW_V1.0.0/Libraries/STM32F0xx_StdPeriph_Driver/src/stm32f0xx_gpio.c **** /**
 276:../../STM32F0-Discovery_FW_V1.0.0/Libraries/STM32F0xx_StdPeriph_Driver/src/stm32f0xx_gpio.c ****   * @brief  Reads the specified input port pin.
 277:../../STM32F0-Discovery_FW_V1.0.0/Libraries/STM32F0xx_StdPeriph_Driver/src/stm32f0xx_gpio.c ****   * @param  GPIOx: where x can be (A, B, C, D or F) to select the GPIO peripheral.
 278:../../STM32F0-Discovery_FW_V1.0.0/Libraries/STM32F0xx_StdPeriph_Driver/src/stm32f0xx_gpio.c ****   * @param  GPIO_Pin: specifies the port bit to read.
 279:../../STM32F0-Discovery_FW_V1.0.0/Libraries/STM32F0xx_StdPeriph_Driver/src/stm32f0xx_gpio.c ****   * @note   This parameter can be GPIO_Pin_x where x can be:(0..15) for GPIOA, 
 280:../../STM32F0-Discovery_FW_V1.0.0/Libraries/STM32F0xx_StdPeriph_Driver/src/stm32f0xx_gpio.c ****   *         GPIOB or GPIOC,(0..2) for GPIOD and(0..3) for GPIOF.
 281:../../STM32F0-Discovery_FW_V1.0.0/Libraries/STM32F0xx_StdPeriph_Driver/src/stm32f0xx_gpio.c ****   * @retval The input port pin value.
 282:../../STM32F0-Discovery_FW_V1.0.0/Libraries/STM32F0xx_StdPeriph_Driver/src/stm32f0xx_gpio.c ****   */
 283:../../STM32F0-Discovery_FW_V1.0.0/Libraries/STM32F0xx_StdPeriph_Driver/src/stm32f0xx_gpio.c **** uint8_t GPIO_ReadInputDataBit(GPIO_TypeDef* GPIOx, uint16_t GPIO_Pin)
 284:../../STM32F0-Discovery_FW_V1.0.0/Libraries/STM32F0xx_StdPeriph_Driver/src/stm32f0xx_gpio.c **** {
 383              		.loc 1 284 0
 384              		.cfi_startproc
 385              	.LVL25:
 285:../../STM32F0-Discovery_FW_V1.0.0/Libraries/STM32F0xx_StdPeriph_Driver/src/stm32f0xx_gpio.c ****   uint8_t bitstatus = 0x00;
 286:../../STM32F0-Discovery_FW_V1.0.0/Libraries/STM32F0xx_StdPeriph_Driver/src/stm32f0xx_gpio.c **** 
 287:../../STM32F0-Discovery_FW_V1.0.0/Libraries/STM32F0xx_StdPeriph_Driver/src/stm32f0xx_gpio.c ****   /* Check the parameters */
 288:../../STM32F0-Discovery_FW_V1.0.0/Libraries/STM32F0xx_StdPeriph_Driver/src/stm32f0xx_gpio.c ****   assert_param(IS_GPIO_ALL_PERIPH(GPIOx));
 289:../../STM32F0-Discovery_FW_V1.0.0/Libraries/STM32F0xx_StdPeriph_Driver/src/stm32f0xx_gpio.c ****   assert_param(IS_GET_GPIO_PIN(GPIO_Pin));
 290:../../STM32F0-Discovery_FW_V1.0.0/Libraries/STM32F0xx_StdPeriph_Driver/src/stm32f0xx_gpio.c **** 
 291:../../STM32F0-Discovery_FW_V1.0.0/Libraries/STM32F0xx_StdPeriph_Driver/src/stm32f0xx_gpio.c ****   if ((GPIOx->IDR & GPIO_Pin) != (uint32_t)Bit_RESET)
 386              		.loc 1 291 0
ARM GAS  /var/folders/2t/5_dq_mx53q95ng_my0p9r2x00000gp/T//ccE0nXnB.s 			page 13


 387 0138 008A     		ldrh	r0, [r0, #16]	@ tmp119,
 388              	.LVL26:
 292:../../STM32F0-Discovery_FW_V1.0.0/Libraries/STM32F0xx_StdPeriph_Driver/src/stm32f0xx_gpio.c ****   {
 293:../../STM32F0-Discovery_FW_V1.0.0/Libraries/STM32F0xx_StdPeriph_Driver/src/stm32f0xx_gpio.c ****     bitstatus = (uint8_t)Bit_SET;
 294:../../STM32F0-Discovery_FW_V1.0.0/Libraries/STM32F0xx_StdPeriph_Driver/src/stm32f0xx_gpio.c ****   }
 295:../../STM32F0-Discovery_FW_V1.0.0/Libraries/STM32F0xx_StdPeriph_Driver/src/stm32f0xx_gpio.c ****   else
 296:../../STM32F0-Discovery_FW_V1.0.0/Libraries/STM32F0xx_StdPeriph_Driver/src/stm32f0xx_gpio.c ****   {
 297:../../STM32F0-Discovery_FW_V1.0.0/Libraries/STM32F0xx_StdPeriph_Driver/src/stm32f0xx_gpio.c ****     bitstatus = (uint8_t)Bit_RESET;
 298:../../STM32F0-Discovery_FW_V1.0.0/Libraries/STM32F0xx_StdPeriph_Driver/src/stm32f0xx_gpio.c ****   }
 299:../../STM32F0-Discovery_FW_V1.0.0/Libraries/STM32F0xx_StdPeriph_Driver/src/stm32f0xx_gpio.c ****   return bitstatus;
 300:../../STM32F0-Discovery_FW_V1.0.0/Libraries/STM32F0xx_StdPeriph_Driver/src/stm32f0xx_gpio.c **** }
 389              		.loc 1 300 0
 390              		@ sp needed	@
 291:../../STM32F0-Discovery_FW_V1.0.0/Libraries/STM32F0xx_StdPeriph_Driver/src/stm32f0xx_gpio.c ****   if ((GPIOx->IDR & GPIO_Pin) != (uint32_t)Bit_RESET)
 391              		.loc 1 291 0
 392 013a 0840     		and	r0, r1	@ tmp122, GPIO_Pin
 393              	.LVL27:
 394 013c 431E     		sub	r3, r0, #1	@ tmp124, tmp122
 395 013e 9841     		sbc	r0, r0, r3	@ tmp123, tmp122, tmp124
 299:../../STM32F0-Discovery_FW_V1.0.0/Libraries/STM32F0xx_StdPeriph_Driver/src/stm32f0xx_gpio.c ****   return bitstatus;
 396              		.loc 1 299 0
 397 0140 C0B2     		uxtb	r0, r0	@ D.5004, tmp123
 398              		.loc 1 300 0
 399 0142 7047     		bx	lr
 400              		.cfi_endproc
 401              	.LFE36:
 402              		.size	GPIO_ReadInputDataBit, .-GPIO_ReadInputDataBit
 403              		.align	1
 404              		.global	GPIO_ReadInputData
 405              		.code	16
 406              		.thumb_func
 407              		.type	GPIO_ReadInputData, %function
 408              	GPIO_ReadInputData:
 409              	.LFB37:
 301:../../STM32F0-Discovery_FW_V1.0.0/Libraries/STM32F0xx_StdPeriph_Driver/src/stm32f0xx_gpio.c **** 
 302:../../STM32F0-Discovery_FW_V1.0.0/Libraries/STM32F0xx_StdPeriph_Driver/src/stm32f0xx_gpio.c **** /**
 303:../../STM32F0-Discovery_FW_V1.0.0/Libraries/STM32F0xx_StdPeriph_Driver/src/stm32f0xx_gpio.c ****   * @brief  Reads the specified input port pin.
 304:../../STM32F0-Discovery_FW_V1.0.0/Libraries/STM32F0xx_StdPeriph_Driver/src/stm32f0xx_gpio.c ****   * @param  GPIOx: where x can be (A, B, C, D or F) to select the GPIO peripheral.
 305:../../STM32F0-Discovery_FW_V1.0.0/Libraries/STM32F0xx_StdPeriph_Driver/src/stm32f0xx_gpio.c ****   * @retval The input port pin value.
 306:../../STM32F0-Discovery_FW_V1.0.0/Libraries/STM32F0xx_StdPeriph_Driver/src/stm32f0xx_gpio.c ****   */
 307:../../STM32F0-Discovery_FW_V1.0.0/Libraries/STM32F0xx_StdPeriph_Driver/src/stm32f0xx_gpio.c **** uint16_t GPIO_ReadInputData(GPIO_TypeDef* GPIOx)
 308:../../STM32F0-Discovery_FW_V1.0.0/Libraries/STM32F0xx_StdPeriph_Driver/src/stm32f0xx_gpio.c **** {
 410              		.loc 1 308 0
 411              		.cfi_startproc
 412              	.LVL28:
 309:../../STM32F0-Discovery_FW_V1.0.0/Libraries/STM32F0xx_StdPeriph_Driver/src/stm32f0xx_gpio.c ****   /* Check the parameters */
 310:../../STM32F0-Discovery_FW_V1.0.0/Libraries/STM32F0xx_StdPeriph_Driver/src/stm32f0xx_gpio.c ****   assert_param(IS_GPIO_ALL_PERIPH(GPIOx));
 311:../../STM32F0-Discovery_FW_V1.0.0/Libraries/STM32F0xx_StdPeriph_Driver/src/stm32f0xx_gpio.c **** 
 312:../../STM32F0-Discovery_FW_V1.0.0/Libraries/STM32F0xx_StdPeriph_Driver/src/stm32f0xx_gpio.c ****   return ((uint16_t)GPIOx->IDR);
 413              		.loc 1 312 0
 414 0144 008A     		ldrh	r0, [r0, #16]	@ tmp115,
 415              	.LVL29:
 313:../../STM32F0-Discovery_FW_V1.0.0/Libraries/STM32F0xx_StdPeriph_Driver/src/stm32f0xx_gpio.c **** }
 416              		.loc 1 313 0
 417              		@ sp needed	@
 312:../../STM32F0-Discovery_FW_V1.0.0/Libraries/STM32F0xx_StdPeriph_Driver/src/stm32f0xx_gpio.c ****   return ((uint16_t)GPIOx->IDR);
 418              		.loc 1 312 0
ARM GAS  /var/folders/2t/5_dq_mx53q95ng_my0p9r2x00000gp/T//ccE0nXnB.s 			page 14


 419 0146 80B2     		uxth	r0, r0	@ D.5008, tmp115
 420              		.loc 1 313 0
 421 0148 7047     		bx	lr
 422              		.cfi_endproc
 423              	.LFE37:
 424              		.size	GPIO_ReadInputData, .-GPIO_ReadInputData
 425              		.align	1
 426              		.global	GPIO_ReadOutputDataBit
 427              		.code	16
 428              		.thumb_func
 429              		.type	GPIO_ReadOutputDataBit, %function
 430              	GPIO_ReadOutputDataBit:
 431              	.LFB38:
 314:../../STM32F0-Discovery_FW_V1.0.0/Libraries/STM32F0xx_StdPeriph_Driver/src/stm32f0xx_gpio.c **** 
 315:../../STM32F0-Discovery_FW_V1.0.0/Libraries/STM32F0xx_StdPeriph_Driver/src/stm32f0xx_gpio.c **** /**
 316:../../STM32F0-Discovery_FW_V1.0.0/Libraries/STM32F0xx_StdPeriph_Driver/src/stm32f0xx_gpio.c ****   * @brief  Reads the specified output data port bit.
 317:../../STM32F0-Discovery_FW_V1.0.0/Libraries/STM32F0xx_StdPeriph_Driver/src/stm32f0xx_gpio.c ****   * @param  GPIOx: where x can be (A, B, C, D or F) to select the GPIO peripheral.
 318:../../STM32F0-Discovery_FW_V1.0.0/Libraries/STM32F0xx_StdPeriph_Driver/src/stm32f0xx_gpio.c ****   * @param  GPIO_Pin: Specifies the port bit to read.
 319:../../STM32F0-Discovery_FW_V1.0.0/Libraries/STM32F0xx_StdPeriph_Driver/src/stm32f0xx_gpio.c ****   * @note   This parameter can be GPIO_Pin_x where x can be:(0..15) for GPIOA, 
 320:../../STM32F0-Discovery_FW_V1.0.0/Libraries/STM32F0xx_StdPeriph_Driver/src/stm32f0xx_gpio.c ****   *         GPIOB or GPIOC,(0..2) for GPIOD and(0..3) for GPIOF.
 321:../../STM32F0-Discovery_FW_V1.0.0/Libraries/STM32F0xx_StdPeriph_Driver/src/stm32f0xx_gpio.c ****   * @retval The output port pin value.
 322:../../STM32F0-Discovery_FW_V1.0.0/Libraries/STM32F0xx_StdPeriph_Driver/src/stm32f0xx_gpio.c ****   */
 323:../../STM32F0-Discovery_FW_V1.0.0/Libraries/STM32F0xx_StdPeriph_Driver/src/stm32f0xx_gpio.c **** uint8_t GPIO_ReadOutputDataBit(GPIO_TypeDef* GPIOx, uint16_t GPIO_Pin)
 324:../../STM32F0-Discovery_FW_V1.0.0/Libraries/STM32F0xx_StdPeriph_Driver/src/stm32f0xx_gpio.c **** {
 432              		.loc 1 324 0
 433              		.cfi_startproc
 434              	.LVL30:
 325:../../STM32F0-Discovery_FW_V1.0.0/Libraries/STM32F0xx_StdPeriph_Driver/src/stm32f0xx_gpio.c ****   uint8_t bitstatus = 0x00;
 326:../../STM32F0-Discovery_FW_V1.0.0/Libraries/STM32F0xx_StdPeriph_Driver/src/stm32f0xx_gpio.c **** 
 327:../../STM32F0-Discovery_FW_V1.0.0/Libraries/STM32F0xx_StdPeriph_Driver/src/stm32f0xx_gpio.c ****   /* Check the parameters */
 328:../../STM32F0-Discovery_FW_V1.0.0/Libraries/STM32F0xx_StdPeriph_Driver/src/stm32f0xx_gpio.c ****   assert_param(IS_GPIO_ALL_PERIPH(GPIOx));
 329:../../STM32F0-Discovery_FW_V1.0.0/Libraries/STM32F0xx_StdPeriph_Driver/src/stm32f0xx_gpio.c ****   assert_param(IS_GET_GPIO_PIN(GPIO_Pin));
 330:../../STM32F0-Discovery_FW_V1.0.0/Libraries/STM32F0xx_StdPeriph_Driver/src/stm32f0xx_gpio.c **** 
 331:../../STM32F0-Discovery_FW_V1.0.0/Libraries/STM32F0xx_StdPeriph_Driver/src/stm32f0xx_gpio.c ****   if ((GPIOx->ODR & GPIO_Pin) != (uint32_t)Bit_RESET)
 435              		.loc 1 331 0
 436 014a 808A     		ldrh	r0, [r0, #20]	@ tmp119,
 437              	.LVL31:
 332:../../STM32F0-Discovery_FW_V1.0.0/Libraries/STM32F0xx_StdPeriph_Driver/src/stm32f0xx_gpio.c ****   {
 333:../../STM32F0-Discovery_FW_V1.0.0/Libraries/STM32F0xx_StdPeriph_Driver/src/stm32f0xx_gpio.c ****     bitstatus = (uint8_t)Bit_SET;
 334:../../STM32F0-Discovery_FW_V1.0.0/Libraries/STM32F0xx_StdPeriph_Driver/src/stm32f0xx_gpio.c ****   }
 335:../../STM32F0-Discovery_FW_V1.0.0/Libraries/STM32F0xx_StdPeriph_Driver/src/stm32f0xx_gpio.c ****   else
 336:../../STM32F0-Discovery_FW_V1.0.0/Libraries/STM32F0xx_StdPeriph_Driver/src/stm32f0xx_gpio.c ****   {
 337:../../STM32F0-Discovery_FW_V1.0.0/Libraries/STM32F0xx_StdPeriph_Driver/src/stm32f0xx_gpio.c ****     bitstatus = (uint8_t)Bit_RESET;
 338:../../STM32F0-Discovery_FW_V1.0.0/Libraries/STM32F0xx_StdPeriph_Driver/src/stm32f0xx_gpio.c ****   }
 339:../../STM32F0-Discovery_FW_V1.0.0/Libraries/STM32F0xx_StdPeriph_Driver/src/stm32f0xx_gpio.c ****   return bitstatus;
 340:../../STM32F0-Discovery_FW_V1.0.0/Libraries/STM32F0xx_StdPeriph_Driver/src/stm32f0xx_gpio.c **** }
 438              		.loc 1 340 0
 439              		@ sp needed	@
 331:../../STM32F0-Discovery_FW_V1.0.0/Libraries/STM32F0xx_StdPeriph_Driver/src/stm32f0xx_gpio.c ****   if ((GPIOx->ODR & GPIO_Pin) != (uint32_t)Bit_RESET)
 440              		.loc 1 331 0
 441 014c 0840     		and	r0, r1	@ tmp122, GPIO_Pin
 442              	.LVL32:
 443 014e 431E     		sub	r3, r0, #1	@ tmp124, tmp122
 444 0150 9841     		sbc	r0, r0, r3	@ tmp123, tmp122, tmp124
 339:../../STM32F0-Discovery_FW_V1.0.0/Libraries/STM32F0xx_StdPeriph_Driver/src/stm32f0xx_gpio.c ****   return bitstatus;
 445              		.loc 1 339 0
 446 0152 C0B2     		uxtb	r0, r0	@ D.5012, tmp123
ARM GAS  /var/folders/2t/5_dq_mx53q95ng_my0p9r2x00000gp/T//ccE0nXnB.s 			page 15


 447              		.loc 1 340 0
 448 0154 7047     		bx	lr
 449              		.cfi_endproc
 450              	.LFE38:
 451              		.size	GPIO_ReadOutputDataBit, .-GPIO_ReadOutputDataBit
 452              		.align	1
 453              		.global	GPIO_ReadOutputData
 454              		.code	16
 455              		.thumb_func
 456              		.type	GPIO_ReadOutputData, %function
 457              	GPIO_ReadOutputData:
 458              	.LFB39:
 341:../../STM32F0-Discovery_FW_V1.0.0/Libraries/STM32F0xx_StdPeriph_Driver/src/stm32f0xx_gpio.c **** 
 342:../../STM32F0-Discovery_FW_V1.0.0/Libraries/STM32F0xx_StdPeriph_Driver/src/stm32f0xx_gpio.c **** /**
 343:../../STM32F0-Discovery_FW_V1.0.0/Libraries/STM32F0xx_StdPeriph_Driver/src/stm32f0xx_gpio.c ****   * @brief  Reads the specified GPIO output data port.
 344:../../STM32F0-Discovery_FW_V1.0.0/Libraries/STM32F0xx_StdPeriph_Driver/src/stm32f0xx_gpio.c ****   * @param  GPIOx: where x can be (A, B, C, D or F) to select the GPIO peripheral.
 345:../../STM32F0-Discovery_FW_V1.0.0/Libraries/STM32F0xx_StdPeriph_Driver/src/stm32f0xx_gpio.c ****   * @retval GPIO output data port value.
 346:../../STM32F0-Discovery_FW_V1.0.0/Libraries/STM32F0xx_StdPeriph_Driver/src/stm32f0xx_gpio.c ****   */
 347:../../STM32F0-Discovery_FW_V1.0.0/Libraries/STM32F0xx_StdPeriph_Driver/src/stm32f0xx_gpio.c **** uint16_t GPIO_ReadOutputData(GPIO_TypeDef* GPIOx)
 348:../../STM32F0-Discovery_FW_V1.0.0/Libraries/STM32F0xx_StdPeriph_Driver/src/stm32f0xx_gpio.c **** {
 459              		.loc 1 348 0
 460              		.cfi_startproc
 461              	.LVL33:
 349:../../STM32F0-Discovery_FW_V1.0.0/Libraries/STM32F0xx_StdPeriph_Driver/src/stm32f0xx_gpio.c ****   /* Check the parameters */
 350:../../STM32F0-Discovery_FW_V1.0.0/Libraries/STM32F0xx_StdPeriph_Driver/src/stm32f0xx_gpio.c ****   assert_param(IS_GPIO_ALL_PERIPH(GPIOx));
 351:../../STM32F0-Discovery_FW_V1.0.0/Libraries/STM32F0xx_StdPeriph_Driver/src/stm32f0xx_gpio.c **** 
 352:../../STM32F0-Discovery_FW_V1.0.0/Libraries/STM32F0xx_StdPeriph_Driver/src/stm32f0xx_gpio.c ****   return ((uint16_t)GPIOx->ODR);
 462              		.loc 1 352 0
 463 0156 808A     		ldrh	r0, [r0, #20]	@ tmp115,
 464              	.LVL34:
 353:../../STM32F0-Discovery_FW_V1.0.0/Libraries/STM32F0xx_StdPeriph_Driver/src/stm32f0xx_gpio.c **** }
 465              		.loc 1 353 0
 466              		@ sp needed	@
 352:../../STM32F0-Discovery_FW_V1.0.0/Libraries/STM32F0xx_StdPeriph_Driver/src/stm32f0xx_gpio.c ****   return ((uint16_t)GPIOx->ODR);
 467              		.loc 1 352 0
 468 0158 80B2     		uxth	r0, r0	@ D.5016, tmp115
 469              		.loc 1 353 0
 470 015a 7047     		bx	lr
 471              		.cfi_endproc
 472              	.LFE39:
 473              		.size	GPIO_ReadOutputData, .-GPIO_ReadOutputData
 474              		.align	1
 475              		.global	GPIO_SetBits
 476              		.code	16
 477              		.thumb_func
 478              		.type	GPIO_SetBits, %function
 479              	GPIO_SetBits:
 480              	.LFB40:
 354:../../STM32F0-Discovery_FW_V1.0.0/Libraries/STM32F0xx_StdPeriph_Driver/src/stm32f0xx_gpio.c **** 
 355:../../STM32F0-Discovery_FW_V1.0.0/Libraries/STM32F0xx_StdPeriph_Driver/src/stm32f0xx_gpio.c **** /**
 356:../../STM32F0-Discovery_FW_V1.0.0/Libraries/STM32F0xx_StdPeriph_Driver/src/stm32f0xx_gpio.c ****   * @brief  Sets the selected data port bits.
 357:../../STM32F0-Discovery_FW_V1.0.0/Libraries/STM32F0xx_StdPeriph_Driver/src/stm32f0xx_gpio.c ****   * @param  GPIOx: where x can be (A, B, C, D or F) to select the GPIO peripheral.
 358:../../STM32F0-Discovery_FW_V1.0.0/Libraries/STM32F0xx_StdPeriph_Driver/src/stm32f0xx_gpio.c ****   * @param  GPIO_Pin: specifies the port bits to be written.
 359:../../STM32F0-Discovery_FW_V1.0.0/Libraries/STM32F0xx_StdPeriph_Driver/src/stm32f0xx_gpio.c ****   * @note   This parameter can be GPIO_Pin_x where x can be:(0..15) for GPIOA, 
 360:../../STM32F0-Discovery_FW_V1.0.0/Libraries/STM32F0xx_StdPeriph_Driver/src/stm32f0xx_gpio.c ****   *         GPIOB or GPIOC,(0..2) for GPIOD and(0..3) for GPIOF.
 361:../../STM32F0-Discovery_FW_V1.0.0/Libraries/STM32F0xx_StdPeriph_Driver/src/stm32f0xx_gpio.c ****   * @retval None
 362:../../STM32F0-Discovery_FW_V1.0.0/Libraries/STM32F0xx_StdPeriph_Driver/src/stm32f0xx_gpio.c ****   */
ARM GAS  /var/folders/2t/5_dq_mx53q95ng_my0p9r2x00000gp/T//ccE0nXnB.s 			page 16


 363:../../STM32F0-Discovery_FW_V1.0.0/Libraries/STM32F0xx_StdPeriph_Driver/src/stm32f0xx_gpio.c **** void GPIO_SetBits(GPIO_TypeDef* GPIOx, uint16_t GPIO_Pin)
 364:../../STM32F0-Discovery_FW_V1.0.0/Libraries/STM32F0xx_StdPeriph_Driver/src/stm32f0xx_gpio.c **** {
 481              		.loc 1 364 0
 482              		.cfi_startproc
 483              	.LVL35:
 365:../../STM32F0-Discovery_FW_V1.0.0/Libraries/STM32F0xx_StdPeriph_Driver/src/stm32f0xx_gpio.c ****   /* Check the parameters */
 366:../../STM32F0-Discovery_FW_V1.0.0/Libraries/STM32F0xx_StdPeriph_Driver/src/stm32f0xx_gpio.c ****   assert_param(IS_GPIO_ALL_PERIPH(GPIOx));
 367:../../STM32F0-Discovery_FW_V1.0.0/Libraries/STM32F0xx_StdPeriph_Driver/src/stm32f0xx_gpio.c ****   assert_param(IS_GPIO_PIN(GPIO_Pin));
 368:../../STM32F0-Discovery_FW_V1.0.0/Libraries/STM32F0xx_StdPeriph_Driver/src/stm32f0xx_gpio.c **** 
 369:../../STM32F0-Discovery_FW_V1.0.0/Libraries/STM32F0xx_StdPeriph_Driver/src/stm32f0xx_gpio.c ****   GPIOx->BSRR = GPIO_Pin;
 484              		.loc 1 369 0
 485 015c 8161     		str	r1, [r0, #24]	@ GPIO_Pin, GPIOx_4(D)->BSRR
 370:../../STM32F0-Discovery_FW_V1.0.0/Libraries/STM32F0xx_StdPeriph_Driver/src/stm32f0xx_gpio.c **** }
 486              		.loc 1 370 0
 487              		@ sp needed	@
 488 015e 7047     		bx	lr
 489              		.cfi_endproc
 490              	.LFE40:
 491              		.size	GPIO_SetBits, .-GPIO_SetBits
 492              		.align	1
 493              		.global	GPIO_ResetBits
 494              		.code	16
 495              		.thumb_func
 496              		.type	GPIO_ResetBits, %function
 497              	GPIO_ResetBits:
 498              	.LFB41:
 371:../../STM32F0-Discovery_FW_V1.0.0/Libraries/STM32F0xx_StdPeriph_Driver/src/stm32f0xx_gpio.c **** 
 372:../../STM32F0-Discovery_FW_V1.0.0/Libraries/STM32F0xx_StdPeriph_Driver/src/stm32f0xx_gpio.c **** /**
 373:../../STM32F0-Discovery_FW_V1.0.0/Libraries/STM32F0xx_StdPeriph_Driver/src/stm32f0xx_gpio.c ****   * @brief  Clears the selected data port bits.
 374:../../STM32F0-Discovery_FW_V1.0.0/Libraries/STM32F0xx_StdPeriph_Driver/src/stm32f0xx_gpio.c ****   * @param  GPIOx: where x can be (A, B, C, D or F) to select the GPIO peripheral.
 375:../../STM32F0-Discovery_FW_V1.0.0/Libraries/STM32F0xx_StdPeriph_Driver/src/stm32f0xx_gpio.c ****   * @param  GPIO_Pin: specifies the port bits to be written.
 376:../../STM32F0-Discovery_FW_V1.0.0/Libraries/STM32F0xx_StdPeriph_Driver/src/stm32f0xx_gpio.c ****   * @note   This parameter can be GPIO_Pin_x where x can be: (0..15) for GPIOA, 
 377:../../STM32F0-Discovery_FW_V1.0.0/Libraries/STM32F0xx_StdPeriph_Driver/src/stm32f0xx_gpio.c ****   *         GPIOB or GPIOC,(0..2) for GPIOD and(0..3) for GPIOF.
 378:../../STM32F0-Discovery_FW_V1.0.0/Libraries/STM32F0xx_StdPeriph_Driver/src/stm32f0xx_gpio.c ****   * @retval None
 379:../../STM32F0-Discovery_FW_V1.0.0/Libraries/STM32F0xx_StdPeriph_Driver/src/stm32f0xx_gpio.c ****   */
 380:../../STM32F0-Discovery_FW_V1.0.0/Libraries/STM32F0xx_StdPeriph_Driver/src/stm32f0xx_gpio.c **** void GPIO_ResetBits(GPIO_TypeDef* GPIOx, uint16_t GPIO_Pin)
 381:../../STM32F0-Discovery_FW_V1.0.0/Libraries/STM32F0xx_StdPeriph_Driver/src/stm32f0xx_gpio.c **** {
 499              		.loc 1 381 0
 500              		.cfi_startproc
 501              	.LVL36:
 382:../../STM32F0-Discovery_FW_V1.0.0/Libraries/STM32F0xx_StdPeriph_Driver/src/stm32f0xx_gpio.c ****   /* Check the parameters */
 383:../../STM32F0-Discovery_FW_V1.0.0/Libraries/STM32F0xx_StdPeriph_Driver/src/stm32f0xx_gpio.c ****   assert_param(IS_GPIO_ALL_PERIPH(GPIOx));
 384:../../STM32F0-Discovery_FW_V1.0.0/Libraries/STM32F0xx_StdPeriph_Driver/src/stm32f0xx_gpio.c ****   assert_param(IS_GPIO_PIN(GPIO_Pin));
 385:../../STM32F0-Discovery_FW_V1.0.0/Libraries/STM32F0xx_StdPeriph_Driver/src/stm32f0xx_gpio.c **** 
 386:../../STM32F0-Discovery_FW_V1.0.0/Libraries/STM32F0xx_StdPeriph_Driver/src/stm32f0xx_gpio.c ****   GPIOx->BRR = GPIO_Pin;
 502              		.loc 1 386 0
 503 0160 0185     		strh	r1, [r0, #40]	@ GPIO_Pin, GPIOx_2(D)->BRR
 387:../../STM32F0-Discovery_FW_V1.0.0/Libraries/STM32F0xx_StdPeriph_Driver/src/stm32f0xx_gpio.c **** }
 504              		.loc 1 387 0
 505              		@ sp needed	@
 506 0162 7047     		bx	lr
 507              		.cfi_endproc
 508              	.LFE41:
 509              		.size	GPIO_ResetBits, .-GPIO_ResetBits
 510              		.align	1
 511              		.global	GPIO_WriteBit
 512              		.code	16
ARM GAS  /var/folders/2t/5_dq_mx53q95ng_my0p9r2x00000gp/T//ccE0nXnB.s 			page 17


 513              		.thumb_func
 514              		.type	GPIO_WriteBit, %function
 515              	GPIO_WriteBit:
 516              	.LFB42:
 388:../../STM32F0-Discovery_FW_V1.0.0/Libraries/STM32F0xx_StdPeriph_Driver/src/stm32f0xx_gpio.c **** 
 389:../../STM32F0-Discovery_FW_V1.0.0/Libraries/STM32F0xx_StdPeriph_Driver/src/stm32f0xx_gpio.c **** /**
 390:../../STM32F0-Discovery_FW_V1.0.0/Libraries/STM32F0xx_StdPeriph_Driver/src/stm32f0xx_gpio.c ****   * @brief  Sets or clears the selected data port bit.
 391:../../STM32F0-Discovery_FW_V1.0.0/Libraries/STM32F0xx_StdPeriph_Driver/src/stm32f0xx_gpio.c ****   * @param  GPIOx: where x can be (A, B, C, D or F) to select the GPIO peripheral.
 392:../../STM32F0-Discovery_FW_V1.0.0/Libraries/STM32F0xx_StdPeriph_Driver/src/stm32f0xx_gpio.c ****   * @param  GPIO_Pin: specifies the port bit to be written.
 393:../../STM32F0-Discovery_FW_V1.0.0/Libraries/STM32F0xx_StdPeriph_Driver/src/stm32f0xx_gpio.c ****   * @param  BitVal: specifies the value to be written to the selected bit.
 394:../../STM32F0-Discovery_FW_V1.0.0/Libraries/STM32F0xx_StdPeriph_Driver/src/stm32f0xx_gpio.c ****   *   This parameter can be one of the BitAction enumeration values:
 395:../../STM32F0-Discovery_FW_V1.0.0/Libraries/STM32F0xx_StdPeriph_Driver/src/stm32f0xx_gpio.c ****   *     @arg Bit_RESET: to clear the port pin
 396:../../STM32F0-Discovery_FW_V1.0.0/Libraries/STM32F0xx_StdPeriph_Driver/src/stm32f0xx_gpio.c ****   *     @arg Bit_SET: to set the port pin
 397:../../STM32F0-Discovery_FW_V1.0.0/Libraries/STM32F0xx_StdPeriph_Driver/src/stm32f0xx_gpio.c ****   * @note   The GPIO_Pin parameter can be GPIO_Pin_x where x can be: (0..15) for GPIOA, 
 398:../../STM32F0-Discovery_FW_V1.0.0/Libraries/STM32F0xx_StdPeriph_Driver/src/stm32f0xx_gpio.c ****   *         GPIOB or GPIOC,(0..2) for GPIOD and(0..3) for GPIOF.  
 399:../../STM32F0-Discovery_FW_V1.0.0/Libraries/STM32F0xx_StdPeriph_Driver/src/stm32f0xx_gpio.c ****   * @retval None
 400:../../STM32F0-Discovery_FW_V1.0.0/Libraries/STM32F0xx_StdPeriph_Driver/src/stm32f0xx_gpio.c ****   */
 401:../../STM32F0-Discovery_FW_V1.0.0/Libraries/STM32F0xx_StdPeriph_Driver/src/stm32f0xx_gpio.c **** void GPIO_WriteBit(GPIO_TypeDef* GPIOx, uint16_t GPIO_Pin, BitAction BitVal)
 402:../../STM32F0-Discovery_FW_V1.0.0/Libraries/STM32F0xx_StdPeriph_Driver/src/stm32f0xx_gpio.c **** {
 517              		.loc 1 402 0
 518              		.cfi_startproc
 519              	.LVL37:
 403:../../STM32F0-Discovery_FW_V1.0.0/Libraries/STM32F0xx_StdPeriph_Driver/src/stm32f0xx_gpio.c ****   /* Check the parameters */
 404:../../STM32F0-Discovery_FW_V1.0.0/Libraries/STM32F0xx_StdPeriph_Driver/src/stm32f0xx_gpio.c ****   assert_param(IS_GPIO_ALL_PERIPH(GPIOx));
 405:../../STM32F0-Discovery_FW_V1.0.0/Libraries/STM32F0xx_StdPeriph_Driver/src/stm32f0xx_gpio.c ****   assert_param(IS_GET_GPIO_PIN(GPIO_Pin));
 406:../../STM32F0-Discovery_FW_V1.0.0/Libraries/STM32F0xx_StdPeriph_Driver/src/stm32f0xx_gpio.c ****   assert_param(IS_GPIO_BIT_ACTION(BitVal));
 407:../../STM32F0-Discovery_FW_V1.0.0/Libraries/STM32F0xx_StdPeriph_Driver/src/stm32f0xx_gpio.c **** 
 408:../../STM32F0-Discovery_FW_V1.0.0/Libraries/STM32F0xx_StdPeriph_Driver/src/stm32f0xx_gpio.c ****   if (BitVal != Bit_RESET)
 520              		.loc 1 408 0
 521 0164 002A     		cmp	r2, #0	@ BitVal,
 522 0166 01D0     		beq	.L27	@,
 409:../../STM32F0-Discovery_FW_V1.0.0/Libraries/STM32F0xx_StdPeriph_Driver/src/stm32f0xx_gpio.c ****   {
 410:../../STM32F0-Discovery_FW_V1.0.0/Libraries/STM32F0xx_StdPeriph_Driver/src/stm32f0xx_gpio.c ****     GPIOx->BSRR = GPIO_Pin;
 523              		.loc 1 410 0
 524 0168 8161     		str	r1, [r0, #24]	@ GPIO_Pin, GPIOx_6(D)->BSRR
 525 016a 00E0     		b	.L26	@
 526              	.L27:
 411:../../STM32F0-Discovery_FW_V1.0.0/Libraries/STM32F0xx_StdPeriph_Driver/src/stm32f0xx_gpio.c ****   }
 412:../../STM32F0-Discovery_FW_V1.0.0/Libraries/STM32F0xx_StdPeriph_Driver/src/stm32f0xx_gpio.c ****   else
 413:../../STM32F0-Discovery_FW_V1.0.0/Libraries/STM32F0xx_StdPeriph_Driver/src/stm32f0xx_gpio.c ****   {
 414:../../STM32F0-Discovery_FW_V1.0.0/Libraries/STM32F0xx_StdPeriph_Driver/src/stm32f0xx_gpio.c ****     GPIOx->BRR = GPIO_Pin ;
 527              		.loc 1 414 0
 528 016c 0185     		strh	r1, [r0, #40]	@ GPIO_Pin, GPIOx_6(D)->BRR
 529              	.L26:
 415:../../STM32F0-Discovery_FW_V1.0.0/Libraries/STM32F0xx_StdPeriph_Driver/src/stm32f0xx_gpio.c ****   }
 416:../../STM32F0-Discovery_FW_V1.0.0/Libraries/STM32F0xx_StdPeriph_Driver/src/stm32f0xx_gpio.c **** }
 530              		.loc 1 416 0
 531              		@ sp needed	@
 532 016e 7047     		bx	lr
 533              		.cfi_endproc
 534              	.LFE42:
 535              		.size	GPIO_WriteBit, .-GPIO_WriteBit
 536              		.align	1
 537              		.global	GPIO_Write
 538              		.code	16
 539              		.thumb_func
 540              		.type	GPIO_Write, %function
ARM GAS  /var/folders/2t/5_dq_mx53q95ng_my0p9r2x00000gp/T//ccE0nXnB.s 			page 18


 541              	GPIO_Write:
 542              	.LFB43:
 417:../../STM32F0-Discovery_FW_V1.0.0/Libraries/STM32F0xx_StdPeriph_Driver/src/stm32f0xx_gpio.c **** 
 418:../../STM32F0-Discovery_FW_V1.0.0/Libraries/STM32F0xx_StdPeriph_Driver/src/stm32f0xx_gpio.c **** /**
 419:../../STM32F0-Discovery_FW_V1.0.0/Libraries/STM32F0xx_StdPeriph_Driver/src/stm32f0xx_gpio.c ****   * @brief  Writes data to the specified GPIO data port.
 420:../../STM32F0-Discovery_FW_V1.0.0/Libraries/STM32F0xx_StdPeriph_Driver/src/stm32f0xx_gpio.c ****   * @param  GPIOx: where x can be (A, B, C, D or F) to select the GPIO peripheral.
 421:../../STM32F0-Discovery_FW_V1.0.0/Libraries/STM32F0xx_StdPeriph_Driver/src/stm32f0xx_gpio.c ****   * @param  PortVal: specifies the value to be written to the port output data 
 422:../../STM32F0-Discovery_FW_V1.0.0/Libraries/STM32F0xx_StdPeriph_Driver/src/stm32f0xx_gpio.c ****   *                  register.
 423:../../STM32F0-Discovery_FW_V1.0.0/Libraries/STM32F0xx_StdPeriph_Driver/src/stm32f0xx_gpio.c ****   * @retval None
 424:../../STM32F0-Discovery_FW_V1.0.0/Libraries/STM32F0xx_StdPeriph_Driver/src/stm32f0xx_gpio.c ****   */
 425:../../STM32F0-Discovery_FW_V1.0.0/Libraries/STM32F0xx_StdPeriph_Driver/src/stm32f0xx_gpio.c **** void GPIO_Write(GPIO_TypeDef* GPIOx, uint16_t PortVal)
 426:../../STM32F0-Discovery_FW_V1.0.0/Libraries/STM32F0xx_StdPeriph_Driver/src/stm32f0xx_gpio.c **** {
 543              		.loc 1 426 0
 544              		.cfi_startproc
 545              	.LVL38:
 427:../../STM32F0-Discovery_FW_V1.0.0/Libraries/STM32F0xx_StdPeriph_Driver/src/stm32f0xx_gpio.c ****   /* Check the parameters */
 428:../../STM32F0-Discovery_FW_V1.0.0/Libraries/STM32F0xx_StdPeriph_Driver/src/stm32f0xx_gpio.c ****   assert_param(IS_GPIO_ALL_PERIPH(GPIOx));
 429:../../STM32F0-Discovery_FW_V1.0.0/Libraries/STM32F0xx_StdPeriph_Driver/src/stm32f0xx_gpio.c **** 
 430:../../STM32F0-Discovery_FW_V1.0.0/Libraries/STM32F0xx_StdPeriph_Driver/src/stm32f0xx_gpio.c ****   GPIOx->ODR = PortVal;
 546              		.loc 1 430 0
 547 0170 8182     		strh	r1, [r0, #20]	@ PortVal, GPIOx_2(D)->ODR
 431:../../STM32F0-Discovery_FW_V1.0.0/Libraries/STM32F0xx_StdPeriph_Driver/src/stm32f0xx_gpio.c **** }
 548              		.loc 1 431 0
 549              		@ sp needed	@
 550 0172 7047     		bx	lr
 551              		.cfi_endproc
 552              	.LFE43:
 553              		.size	GPIO_Write, .-GPIO_Write
 554              		.align	1
 555              		.global	GPIO_PinAFConfig
 556              		.code	16
 557              		.thumb_func
 558              		.type	GPIO_PinAFConfig, %function
 559              	GPIO_PinAFConfig:
 560              	.LFB44:
 432:../../STM32F0-Discovery_FW_V1.0.0/Libraries/STM32F0xx_StdPeriph_Driver/src/stm32f0xx_gpio.c **** 
 433:../../STM32F0-Discovery_FW_V1.0.0/Libraries/STM32F0xx_StdPeriph_Driver/src/stm32f0xx_gpio.c **** /**
 434:../../STM32F0-Discovery_FW_V1.0.0/Libraries/STM32F0xx_StdPeriph_Driver/src/stm32f0xx_gpio.c ****   * @}
 435:../../STM32F0-Discovery_FW_V1.0.0/Libraries/STM32F0xx_StdPeriph_Driver/src/stm32f0xx_gpio.c ****   */
 436:../../STM32F0-Discovery_FW_V1.0.0/Libraries/STM32F0xx_StdPeriph_Driver/src/stm32f0xx_gpio.c **** 
 437:../../STM32F0-Discovery_FW_V1.0.0/Libraries/STM32F0xx_StdPeriph_Driver/src/stm32f0xx_gpio.c **** /** @defgroup GPIO_Group3 GPIO Alternate functions configuration functions
 438:../../STM32F0-Discovery_FW_V1.0.0/Libraries/STM32F0xx_StdPeriph_Driver/src/stm32f0xx_gpio.c ****  *  @brief   GPIO Alternate functions configuration functions
 439:../../STM32F0-Discovery_FW_V1.0.0/Libraries/STM32F0xx_StdPeriph_Driver/src/stm32f0xx_gpio.c ****  *
 440:../../STM32F0-Discovery_FW_V1.0.0/Libraries/STM32F0xx_StdPeriph_Driver/src/stm32f0xx_gpio.c **** @verbatim   
 441:../../STM32F0-Discovery_FW_V1.0.0/Libraries/STM32F0xx_StdPeriph_Driver/src/stm32f0xx_gpio.c ****  ===============================================================================
 442:../../STM32F0-Discovery_FW_V1.0.0/Libraries/STM32F0xx_StdPeriph_Driver/src/stm32f0xx_gpio.c ****           ##### GPIO Alternate functions configuration functions #####
 443:../../STM32F0-Discovery_FW_V1.0.0/Libraries/STM32F0xx_StdPeriph_Driver/src/stm32f0xx_gpio.c ****  ===============================================================================  
 444:../../STM32F0-Discovery_FW_V1.0.0/Libraries/STM32F0xx_StdPeriph_Driver/src/stm32f0xx_gpio.c **** 
 445:../../STM32F0-Discovery_FW_V1.0.0/Libraries/STM32F0xx_StdPeriph_Driver/src/stm32f0xx_gpio.c **** @endverbatim
 446:../../STM32F0-Discovery_FW_V1.0.0/Libraries/STM32F0xx_StdPeriph_Driver/src/stm32f0xx_gpio.c ****   * @{
 447:../../STM32F0-Discovery_FW_V1.0.0/Libraries/STM32F0xx_StdPeriph_Driver/src/stm32f0xx_gpio.c ****   */
 448:../../STM32F0-Discovery_FW_V1.0.0/Libraries/STM32F0xx_StdPeriph_Driver/src/stm32f0xx_gpio.c **** 
 449:../../STM32F0-Discovery_FW_V1.0.0/Libraries/STM32F0xx_StdPeriph_Driver/src/stm32f0xx_gpio.c **** /**
 450:../../STM32F0-Discovery_FW_V1.0.0/Libraries/STM32F0xx_StdPeriph_Driver/src/stm32f0xx_gpio.c ****   * @brief  Writes data to the specified GPIO data port.
 451:../../STM32F0-Discovery_FW_V1.0.0/Libraries/STM32F0xx_StdPeriph_Driver/src/stm32f0xx_gpio.c ****   * @param  GPIOx: where x can be (A or B) to select the GPIO peripheral.
 452:../../STM32F0-Discovery_FW_V1.0.0/Libraries/STM32F0xx_StdPeriph_Driver/src/stm32f0xx_gpio.c ****   * @param  GPIO_PinSource: specifies the pin for the Alternate function.
 453:../../STM32F0-Discovery_FW_V1.0.0/Libraries/STM32F0xx_StdPeriph_Driver/src/stm32f0xx_gpio.c ****   *   This parameter can be GPIO_PinSourcex where x can be (0..15).
ARM GAS  /var/folders/2t/5_dq_mx53q95ng_my0p9r2x00000gp/T//ccE0nXnB.s 			page 19


 454:../../STM32F0-Discovery_FW_V1.0.0/Libraries/STM32F0xx_StdPeriph_Driver/src/stm32f0xx_gpio.c ****   * @param  GPIO_AF: selects the pin to used as Alternate function.
 455:../../STM32F0-Discovery_FW_V1.0.0/Libraries/STM32F0xx_StdPeriph_Driver/src/stm32f0xx_gpio.c ****   *   This parameter can be one of the following value:
 456:../../STM32F0-Discovery_FW_V1.0.0/Libraries/STM32F0xx_StdPeriph_Driver/src/stm32f0xx_gpio.c ****  *     @arg GPIO_AF_0:WKUP, EVENTOUT, TIM15, SPI1, TIM17,MCO, SWDAT, SWCLK, TIM14,
 457:../../STM32F0-Discovery_FW_V1.0.0/Libraries/STM32F0xx_StdPeriph_Driver/src/stm32f0xx_gpio.c ****  *                    BOOT,USART1, CEC, IR_OUT, SPI2 
 458:../../STM32F0-Discovery_FW_V1.0.0/Libraries/STM32F0xx_StdPeriph_Driver/src/stm32f0xx_gpio.c ****  *     @arg GPIO_AF_1:USART2, CEC, Tim3, USART1, USART2,EVENTOUT, I2C1, I2C2, TIM15 
 459:../../STM32F0-Discovery_FW_V1.0.0/Libraries/STM32F0xx_StdPeriph_Driver/src/stm32f0xx_gpio.c ****  *     @arg GPIO_AF_2:TIM2, TIM1, EVENTOUT, TIM16, TIM17.
 460:../../STM32F0-Discovery_FW_V1.0.0/Libraries/STM32F0xx_StdPeriph_Driver/src/stm32f0xx_gpio.c ****  *     @arg GPIO_AF_3:TS, I2C1, TIM15, EVENTOUT 
 461:../../STM32F0-Discovery_FW_V1.0.0/Libraries/STM32F0xx_StdPeriph_Driver/src/stm32f0xx_gpio.c ****  *     @arg GPIO_AF_4:TIM14.
 462:../../STM32F0-Discovery_FW_V1.0.0/Libraries/STM32F0xx_StdPeriph_Driver/src/stm32f0xx_gpio.c ****  *     @arg GPIO_AF_5:TIM16, TIM17.
 463:../../STM32F0-Discovery_FW_V1.0.0/Libraries/STM32F0xx_StdPeriph_Driver/src/stm32f0xx_gpio.c ****  *     @arg GPIO_AF_6:EVENTOUT.
 464:../../STM32F0-Discovery_FW_V1.0.0/Libraries/STM32F0xx_StdPeriph_Driver/src/stm32f0xx_gpio.c ****  *     @arg GPIO_AF_7:COMP1 OUT, COMP2 OUT 
 465:../../STM32F0-Discovery_FW_V1.0.0/Libraries/STM32F0xx_StdPeriph_Driver/src/stm32f0xx_gpio.c ****  * @note  The pin should already been configured in Alternate Function mode(AF)
 466:../../STM32F0-Discovery_FW_V1.0.0/Libraries/STM32F0xx_StdPeriph_Driver/src/stm32f0xx_gpio.c ****  *        using GPIO_InitStruct->GPIO_Mode = GPIO_Mode_AF
 467:../../STM32F0-Discovery_FW_V1.0.0/Libraries/STM32F0xx_StdPeriph_Driver/src/stm32f0xx_gpio.c ****  * @note  Refer to the Alternate function mapping table in the device datasheet 
 468:../../STM32F0-Discovery_FW_V1.0.0/Libraries/STM32F0xx_StdPeriph_Driver/src/stm32f0xx_gpio.c ****  *        for the detailed mapping of the system and peripherals'alternate 
 469:../../STM32F0-Discovery_FW_V1.0.0/Libraries/STM32F0xx_StdPeriph_Driver/src/stm32f0xx_gpio.c ****  *        function I/O pins.
 470:../../STM32F0-Discovery_FW_V1.0.0/Libraries/STM32F0xx_StdPeriph_Driver/src/stm32f0xx_gpio.c ****  * @retval None
 471:../../STM32F0-Discovery_FW_V1.0.0/Libraries/STM32F0xx_StdPeriph_Driver/src/stm32f0xx_gpio.c ****  */
 472:../../STM32F0-Discovery_FW_V1.0.0/Libraries/STM32F0xx_StdPeriph_Driver/src/stm32f0xx_gpio.c **** void GPIO_PinAFConfig(GPIO_TypeDef* GPIOx, uint16_t GPIO_PinSource, uint8_t GPIO_AF)
 473:../../STM32F0-Discovery_FW_V1.0.0/Libraries/STM32F0xx_StdPeriph_Driver/src/stm32f0xx_gpio.c **** {
 561              		.loc 1 473 0
 562              		.cfi_startproc
 563              	.LVL39:
 474:../../STM32F0-Discovery_FW_V1.0.0/Libraries/STM32F0xx_StdPeriph_Driver/src/stm32f0xx_gpio.c ****   uint32_t temp = 0x00;
 475:../../STM32F0-Discovery_FW_V1.0.0/Libraries/STM32F0xx_StdPeriph_Driver/src/stm32f0xx_gpio.c ****   uint32_t temp_2 = 0x00;
 476:../../STM32F0-Discovery_FW_V1.0.0/Libraries/STM32F0xx_StdPeriph_Driver/src/stm32f0xx_gpio.c **** 
 477:../../STM32F0-Discovery_FW_V1.0.0/Libraries/STM32F0xx_StdPeriph_Driver/src/stm32f0xx_gpio.c ****   /* Check the parameters */
 478:../../STM32F0-Discovery_FW_V1.0.0/Libraries/STM32F0xx_StdPeriph_Driver/src/stm32f0xx_gpio.c ****   assert_param(IS_GPIO_LIST_PERIPH(GPIOx));
 479:../../STM32F0-Discovery_FW_V1.0.0/Libraries/STM32F0xx_StdPeriph_Driver/src/stm32f0xx_gpio.c ****   assert_param(IS_GPIO_PIN_SOURCE(GPIO_PinSource));
 480:../../STM32F0-Discovery_FW_V1.0.0/Libraries/STM32F0xx_StdPeriph_Driver/src/stm32f0xx_gpio.c ****   assert_param(IS_GPIO_AF(GPIO_AF));
 481:../../STM32F0-Discovery_FW_V1.0.0/Libraries/STM32F0xx_StdPeriph_Driver/src/stm32f0xx_gpio.c **** 
 482:../../STM32F0-Discovery_FW_V1.0.0/Libraries/STM32F0xx_StdPeriph_Driver/src/stm32f0xx_gpio.c ****   temp = ((uint32_t)(GPIO_AF) << ((uint32_t)((uint32_t)GPIO_PinSource & (uint32_t)0x07) * 4));
 564              		.loc 1 482 0
 565 0174 0723     		mov	r3, #7	@ tmp130,
 566 0176 0B40     		and	r3, r1	@ D.5030, GPIO_PinSource
 567 0178 C908     		lsr	r1, r1, #3	@ D.5033, GPIO_PinSource,
 568              	.LVL40:
 569 017a 8900     		lsl	r1, r1, #2	@ D.5033, D.5033,
 570 017c 4018     		add	r0, r0, r1	@ D.5034, GPIOx, D.5033
 571              	.LVL41:
 473:../../STM32F0-Discovery_FW_V1.0.0/Libraries/STM32F0xx_StdPeriph_Driver/src/stm32f0xx_gpio.c **** {
 572              		.loc 1 473 0
 573 017e 10B5     		push	{r4, lr}	@
 574              	.LCFI3:
 575              		.cfi_def_cfa_offset 8
 576              		.cfi_offset 4, -8
 577              		.cfi_offset 14, -4
 483:../../STM32F0-Discovery_FW_V1.0.0/Libraries/STM32F0xx_StdPeriph_Driver/src/stm32f0xx_gpio.c ****   GPIOx->AFR[GPIO_PinSource >> 0x03] &= ~((uint32_t)0xF << ((uint32_t)((uint32_t)GPIO_PinSource & (
 578              		.loc 1 483 0
 579 0180 016A     		ldr	r1, [r0, #32]	@ D.5030, MEM[(struct GPIO_TypeDef *)_23 + 32B]
 482:../../STM32F0-Discovery_FW_V1.0.0/Libraries/STM32F0xx_StdPeriph_Driver/src/stm32f0xx_gpio.c ****   temp = ((uint32_t)(GPIO_AF) << ((uint32_t)((uint32_t)GPIO_PinSource & (uint32_t)0x07) * 4));
 580              		.loc 1 482 0
 581 0182 9B00     		lsl	r3, r3, #2	@ D.5031, D.5030,
 582              	.LVL42:
 583              		.loc 1 483 0
 584 0184 0F24     		mov	r4, #15	@ tmp136,
 585 0186 9C40     		lsl	r4, r4, r3	@ D.5030, tmp136, D.5031
ARM GAS  /var/folders/2t/5_dq_mx53q95ng_my0p9r2x00000gp/T//ccE0nXnB.s 			page 20


 586 0188 A143     		bic	r1, r4	@ D.5030, D.5030
 587 018a 0162     		str	r1, [r0, #32]	@ D.5030, MEM[(struct GPIO_TypeDef *)_23 + 32B]
 484:../../STM32F0-Discovery_FW_V1.0.0/Libraries/STM32F0xx_StdPeriph_Driver/src/stm32f0xx_gpio.c ****   temp_2 = GPIOx->AFR[GPIO_PinSource >> 0x03] | temp;
 588              		.loc 1 484 0
 589 018c 016A     		ldr	r1, [r0, #32]	@ D.5030, MEM[(struct GPIO_TypeDef *)_23 + 32B]
 482:../../STM32F0-Discovery_FW_V1.0.0/Libraries/STM32F0xx_StdPeriph_Driver/src/stm32f0xx_gpio.c ****   temp = ((uint32_t)(GPIO_AF) << ((uint32_t)((uint32_t)GPIO_PinSource & (uint32_t)0x07) * 4));
 590              		.loc 1 482 0
 591 018e 9A40     		lsl	r2, r2, r3	@ GPIO_AF, GPIO_AF, D.5031
 592              	.LVL43:
 593 0190 131C     		mov	r3, r2	@ temp, GPIO_AF
 594              		.loc 1 484 0
 595 0192 0B43     		orr	r3, r1	@ temp_2, D.5030
 596              	.LVL44:
 485:../../STM32F0-Discovery_FW_V1.0.0/Libraries/STM32F0xx_StdPeriph_Driver/src/stm32f0xx_gpio.c ****   GPIOx->AFR[GPIO_PinSource >> 0x03] = temp_2;
 597              		.loc 1 485 0
 598 0194 0362     		str	r3, [r0, #32]	@ temp_2, MEM[(struct GPIO_TypeDef *)_23 + 32B]
 486:../../STM32F0-Discovery_FW_V1.0.0/Libraries/STM32F0xx_StdPeriph_Driver/src/stm32f0xx_gpio.c **** }
 599              		.loc 1 486 0
 600              		@ sp needed	@
 601 0196 10BD     		pop	{r4, pc}
 602              		.cfi_endproc
 603              	.LFE44:
 604              		.size	GPIO_PinAFConfig, .-GPIO_PinAFConfig
 605              	.Letext0:
 606              		.file 2 "/Volumes/Data/torsten/dev/gcc-arm-none-eabi-4_8-2014q1/arm-none-eabi/include/machine/_def
 607              		.file 3 "/Volumes/Data/torsten/dev/gcc-arm-none-eabi-4_8-2014q1/arm-none-eabi/include/stdint.h"
 608              		.file 4 "../../STM32F0-Discovery_FW_V1.0.0/Libraries/CMSIS/ST/STM32F0xx/Include/stm32f0xx.h"
 609              		.file 5 "../../STM32F0-Discovery_FW_V1.0.0/Libraries/STM32F0xx_StdPeriph_Driver/inc/stm32f0xx_gpio
 610              		.file 6 "../../STM32F0-Discovery_FW_V1.0.0/Libraries/STM32F0xx_StdPeriph_Driver/inc/stm32f0xx_rcc.